	.file	"osm.cpp"
# GNU C++14 (Debian 10.2.1-6) version 10.2.1 20210110 (x86_64-linux-gnu)
#	compiled by GNU C version 10.2.1 20210110, GMP version 6.2.1, MPFR version 4.1.0, MPC version 1.2.0, isl version isl-0.23-GMP

# GGC heuristics: --param ggc-min-expand=100 --param ggc-min-heapsize=131072
# options passed:  -imultiarch x86_64-linux-gnu -D_GNU_SOURCE osm.cpp
# -mtune=generic -march=x86-64 -auxbase-strip osm.s -g -fverbose-asm
# -fasynchronous-unwind-tables
# options enabled:  -fPIC -fPIE -faggressive-loop-optimizations
# -fallocation-dce -fasynchronous-unwind-tables -fauto-inc-dec
# -fdelete-null-pointer-checks -fdwarf2-cfi-asm -fearly-inlining
# -feliminate-unused-debug-symbols -feliminate-unused-debug-types
# -fexceptions -ffp-int-builtin-inexact -ffunction-cse -fgcse-lm
# -fgnu-unique -fident -finline-atomics -fipa-stack-alignment
# -fira-hoist-pressure -fira-share-save-slots -fira-share-spill-slots
# -fivopts -fkeep-static-consts -fleading-underscore -flifetime-dse
# -fmath-errno -fmerge-debug-strings -fpeephole -fplt
# -fprefetch-loop-arrays -freg-struct-return
# -fsched-critical-path-heuristic -fsched-dep-count-heuristic
# -fsched-group-heuristic -fsched-interblock -fsched-last-insn-heuristic
# -fsched-rank-heuristic -fsched-spec -fsched-spec-insn-heuristic
# -fsched-stalled-insns-dep -fschedule-fusion -fsemantic-interposition
# -fshow-column -fshrink-wrap-separate -fsigned-zeros
# -fsplit-ivs-in-unroller -fssa-backprop -fstdarg-opt
# -fstrict-volatile-bitfields -fsync-libcalls -ftrapping-math -ftree-cselim
# -ftree-forwprop -ftree-loop-if-convert -ftree-loop-im -ftree-loop-ivcanon
# -ftree-loop-optimize -ftree-parallelize-loops= -ftree-phiprop
# -ftree-reassoc -ftree-scev-cprop -funit-at-a-time -funwind-tables
# -fverbose-asm -fzero-initialized-in-bss -m128bit-long-double -m64 -m80387
# -malign-stringops -mavx256-split-unaligned-load
# -mavx256-split-unaligned-store -mfancy-math-387 -mfp-ret-in-387 -mfxsr
# -mglibc -mieee-fp -mlong-double-80 -mmmx -mno-sse4 -mpush-args -mred-zone
# -msse -msse2 -mstv -mtls-direct-seg-refs -mvzeroupper

	.text
.Ltext0:
	.section	.rodata
	.type	_ZStL19piecewise_construct, @object
	.size	_ZStL19piecewise_construct, 1
_ZStL19piecewise_construct:
	.zero	1
	.local	_ZStL8__ioinit
	.comm	_ZStL8__ioinit,1,1
	.text
	.globl	_Z18osm_operation_timej
	.type	_Z18osm_operation_timej, @function
_Z18osm_operation_timej:
.LFB1572:
	.file 1 "osm.cpp"
	.loc 1 8 51
	.cfi_startproc
	pushq	%rbp	#
	.cfi_def_cfa_offset 16
	.cfi_offset 6, -16
	movq	%rsp, %rbp	#,
	.cfi_def_cfa_register 6
	subq	$64, %rsp	#,
	movl	%edi, -52(%rbp)	# iterations, iterations
# osm.cpp:9:     if (iterations == 0)
	.loc 1 9 5
	cmpl	$0, -52(%rbp)	#, iterations
	jne	.L2	#,
# osm.cpp:11:         return -1;
	.loc 1 11 17
	movsd	.LC0(%rip), %xmm0	#, _17
	jmp	.L12	#
.L2:
# osm.cpp:15:     gettimeofday(&current_time, NULL);
	.loc 1 15 17
	leaq	-32(%rbp), %rax	#, tmp99
	movl	$0, %esi	#,
	movq	%rax, %rdi	# tmp99,
	call	gettimeofday@PLT	#
.LBB2:
# osm.cpp:16:     for (size_t i = 0; i < iterations; i+=10)
	.loc 1 16 17
	movq	$0, -8(%rbp)	#, i
.L5:
# osm.cpp:16:     for (size_t i = 0; i < iterations; i+=10)
	.loc 1 16 28 discriminator 3
	movl	-52(%rbp), %eax	# iterations, _1
# osm.cpp:16:     for (size_t i = 0; i < iterations; i+=10)
	.loc 1 16 26 discriminator 3
	cmpq	%rax, -8(%rbp)	# _1, i
	jnb	.L4	#,
# osm.cpp:16:     for (size_t i = 0; i < iterations; i+=10)
	.loc 1 16 41 discriminator 2
	addq	$10, -8(%rbp)	#, i
# osm.cpp:16:     for (size_t i = 0; i < iterations; i+=10)
	.loc 1 16 5 discriminator 2
	jmp	.L5	#
.L4:
.LBE2:
# osm.cpp:29:     gettimeofday(&end_time, NULL);
	.loc 1 29 17
	leaq	-48(%rbp), %rax	#, tmp100
	movl	$0, %esi	#,
	movq	%rax, %rdi	# tmp100,
	call	gettimeofday@PLT	#
# osm.cpp:30:     unsigned long nano_exceute_operation = ((end_time.tv_sec -current_time.tv_sec)* 1e9
	.loc 1 30 55
	movq	-48(%rbp), %rax	# end_time.tv_sec, _2
# osm.cpp:30:     unsigned long nano_exceute_operation = ((end_time.tv_sec -current_time.tv_sec)* 1e9
	.loc 1 30 76
	movq	-32(%rbp), %rdx	# current_time.tv_sec, _3
# osm.cpp:30:     unsigned long nano_exceute_operation = ((end_time.tv_sec -current_time.tv_sec)* 1e9
	.loc 1 30 62
	subq	%rdx, %rax	# _3, _4
# osm.cpp:30:     unsigned long nano_exceute_operation = ((end_time.tv_sec -current_time.tv_sec)* 1e9
	.loc 1 30 83
	pxor	%xmm1, %xmm1	# _5
	cvtsi2sdq	%rax, %xmm1	# _4, _5
	movsd	.LC1(%rip), %xmm0	#, tmp101
	mulsd	%xmm0, %xmm1	# tmp101, _6
# osm.cpp:31:      + (end_time.tv_usec -current_time.tv_usec)* 1e3);  
	.loc 1 31 18
	movq	-40(%rbp), %rax	# end_time.tv_usec, _7
# osm.cpp:31:      + (end_time.tv_usec -current_time.tv_usec)* 1e3);  
	.loc 1 31 40
	movq	-24(%rbp), %rdx	# current_time.tv_usec, _8
# osm.cpp:31:      + (end_time.tv_usec -current_time.tv_usec)* 1e3);  
	.loc 1 31 26
	subq	%rdx, %rax	# _8, _9
# osm.cpp:31:      + (end_time.tv_usec -current_time.tv_usec)* 1e3);  
	.loc 1 31 48
	pxor	%xmm2, %xmm2	# _10
	cvtsi2sdq	%rax, %xmm2	# _9, _10
	movsd	.LC2(%rip), %xmm0	#, tmp102
	mulsd	%xmm2, %xmm0	# _10, _11
# osm.cpp:31:      + (end_time.tv_usec -current_time.tv_usec)* 1e3);  
	.loc 1 31 6
	addsd	%xmm1, %xmm0	# _6, _12
# osm.cpp:30:     unsigned long nano_exceute_operation = ((end_time.tv_sec -current_time.tv_sec)* 1e9
	.loc 1 30 19
	comisd	.LC3(%rip), %xmm0	#, _12
	jnb	.L6	#,
	cvttsd2siq	%xmm0, %rax	# _12, tmp103
	movq	%rax, -16(%rbp)	# tmp103, nano_exceute_operation
	jmp	.L7	#
.L6:
	movsd	.LC3(%rip), %xmm1	#, tmp105
	subsd	%xmm1, %xmm0	# tmp105, tmp104
	cvttsd2siq	%xmm0, %rax	# tmp104, tmp106
	movq	%rax, -16(%rbp)	# tmp106, nano_exceute_operation
	movabsq	$-9223372036854775808, %rax	#, tmp107
	xorq	%rax, -16(%rbp)	# tmp107, nano_exceute_operation
.L7:
	movq	-16(%rbp), %rax	# nano_exceute_operation, tmp108
	movq	%rax, -16(%rbp)	# tmp108, nano_exceute_operation
# osm.cpp:32:     return (nano_exceute_operation / ((float)iterations));
	.loc 1 32 36
	movq	-16(%rbp), %rax	# nano_exceute_operation, tmp109
	testq	%rax, %rax	# tmp109
	js	.L8	#,
	pxor	%xmm0, %xmm0	# _13
	cvtsi2ssq	%rax, %xmm0	# tmp109, _13
	jmp	.L9	#
.L8:
	movq	%rax, %rdx	# tmp109, tmp111
	shrq	%rdx	# tmp111
	andl	$1, %eax	#, tmp112
	orq	%rax, %rdx	# tmp112, tmp111
	pxor	%xmm0, %xmm0	# tmp110
	cvtsi2ssq	%rdx, %xmm0	# tmp111, tmp110
	addss	%xmm0, %xmm0	# tmp110, _13
.L9:
# osm.cpp:32:     return (nano_exceute_operation / ((float)iterations));
	.loc 1 32 39
	movl	-52(%rbp), %eax	# iterations, tmp113
	testq	%rax, %rax	# tmp113
	js	.L10	#,
	pxor	%xmm1, %xmm1	# _14
	cvtsi2ssq	%rax, %xmm1	# tmp113, _14
	jmp	.L11	#
.L10:
	movq	%rax, %rdx	# tmp113, tmp115
	shrq	%rdx	# tmp115
	andl	$1, %eax	#, tmp116
	orq	%rax, %rdx	# tmp116, tmp115
	pxor	%xmm1, %xmm1	# tmp114
	cvtsi2ssq	%rdx, %xmm1	# tmp115, tmp114
	addss	%xmm1, %xmm1	# tmp114, _14
.L11:
# osm.cpp:32:     return (nano_exceute_operation / ((float)iterations));
	.loc 1 32 36
	divss	%xmm1, %xmm0	# _14, _15
# osm.cpp:32:     return (nano_exceute_operation / ((float)iterations));
	.loc 1 32 57
	cvtss2sd	%xmm0, %xmm0	# _15, _17
.L12:
# osm.cpp:33: }
	.loc 1 33 1 discriminator 1
	movq	%xmm0, %rax	# _17, <retval>
	movq	%rax, %xmm0	# <retval>,
	leave	
	.cfi_def_cfa 7, 8
	ret	
	.cfi_endproc
.LFE1572:
	.size	_Z18osm_operation_timej, .-_Z18osm_operation_timej
	.globl	_Z4funcv
	.type	_Z4funcv, @function
_Z4funcv:
.LFB1573:
	.loc 1 34 12
	.cfi_startproc
	pushq	%rbp	#
	.cfi_def_cfa_offset 16
	.cfi_offset 6, -16
	movq	%rsp, %rbp	#,
	.cfi_def_cfa_register 6
# osm.cpp:34: void func(){}
	.loc 1 34 13
	nop	
	popq	%rbp	#
	.cfi_def_cfa 7, 8
	ret	
	.cfi_endproc
.LFE1573:
	.size	_Z4funcv, .-_Z4funcv
	.globl	_Z17osm_function_timej
	.type	_Z17osm_function_timej, @function
_Z17osm_function_timej:
.LFB1574:
	.loc 1 36 50
	.cfi_startproc
	pushq	%rbp	#
	.cfi_def_cfa_offset 16
	.cfi_offset 6, -16
	movq	%rsp, %rbp	#,
	.cfi_def_cfa_register 6
	subq	$64, %rsp	#,
	movl	%edi, -52(%rbp)	# iterations, iterations
# osm.cpp:37:     if (iterations == 0)
	.loc 1 37 5
	cmpl	$0, -52(%rbp)	#, iterations
	jne	.L15	#,
# osm.cpp:39:         return -1;
	.loc 1 39 17
	movsd	.LC0(%rip), %xmm0	#, _17
	jmp	.L25	#
.L15:
# osm.cpp:43:     gettimeofday(&current_time, NULL);
	.loc 1 43 17
	leaq	-32(%rbp), %rax	#, tmp99
	movl	$0, %esi	#,
	movq	%rax, %rdi	# tmp99,
	call	gettimeofday@PLT	#
.LBB3:
# osm.cpp:44:     for (size_t i = 0; i < iterations; i+=10)
	.loc 1 44 17
	movq	$0, -8(%rbp)	#, i
.L18:
# osm.cpp:44:     for (size_t i = 0; i < iterations; i+=10)
	.loc 1 44 28 discriminator 3
	movl	-52(%rbp), %eax	# iterations, _1
# osm.cpp:44:     for (size_t i = 0; i < iterations; i+=10)
	.loc 1 44 26 discriminator 3
	cmpq	%rax, -8(%rbp)	# _1, i
	jnb	.L17	#,
# osm.cpp:46:         func();
	.loc 1 46 13 discriminator 2
	call	_Z4funcv	#
# osm.cpp:47:         func();
	.loc 1 47 13 discriminator 2
	call	_Z4funcv	#
# osm.cpp:48:         func();
	.loc 1 48 13 discriminator 2
	call	_Z4funcv	#
# osm.cpp:49:         func();
	.loc 1 49 13 discriminator 2
	call	_Z4funcv	#
# osm.cpp:50:         func();
	.loc 1 50 13 discriminator 2
	call	_Z4funcv	#
# osm.cpp:51:         func();
	.loc 1 51 13 discriminator 2
	call	_Z4funcv	#
# osm.cpp:52:         func();
	.loc 1 52 13 discriminator 2
	call	_Z4funcv	#
# osm.cpp:53:         func();
	.loc 1 53 13 discriminator 2
	call	_Z4funcv	#
# osm.cpp:54:         func();
	.loc 1 54 13 discriminator 2
	call	_Z4funcv	#
# osm.cpp:55:         func();
	.loc 1 55 13 discriminator 2
	call	_Z4funcv	#
# osm.cpp:44:     for (size_t i = 0; i < iterations; i+=10)
	.loc 1 44 41 discriminator 2
	addq	$10, -8(%rbp)	#, i
# osm.cpp:44:     for (size_t i = 0; i < iterations; i+=10)
	.loc 1 44 5 discriminator 2
	jmp	.L18	#
.L17:
.LBE3:
# osm.cpp:57:     gettimeofday(&end_time, NULL);
	.loc 1 57 17
	leaq	-48(%rbp), %rax	#, tmp100
	movl	$0, %esi	#,
	movq	%rax, %rdi	# tmp100,
	call	gettimeofday@PLT	#
# osm.cpp:58:     unsigned long nano_exceute_operation = ((end_time.tv_sec -current_time.tv_sec)* 1e9
	.loc 1 58 55
	movq	-48(%rbp), %rax	# end_time.tv_sec, _2
# osm.cpp:58:     unsigned long nano_exceute_operation = ((end_time.tv_sec -current_time.tv_sec)* 1e9
	.loc 1 58 76
	movq	-32(%rbp), %rdx	# current_time.tv_sec, _3
# osm.cpp:58:     unsigned long nano_exceute_operation = ((end_time.tv_sec -current_time.tv_sec)* 1e9
	.loc 1 58 62
	subq	%rdx, %rax	# _3, _4
# osm.cpp:58:     unsigned long nano_exceute_operation = ((end_time.tv_sec -current_time.tv_sec)* 1e9
	.loc 1 58 83
	pxor	%xmm1, %xmm1	# _5
	cvtsi2sdq	%rax, %xmm1	# _4, _5
	movsd	.LC1(%rip), %xmm0	#, tmp101
	mulsd	%xmm0, %xmm1	# tmp101, _6
# osm.cpp:59:      + (end_time.tv_usec -current_time.tv_usec)* 1e3);  
	.loc 1 59 18
	movq	-40(%rbp), %rax	# end_time.tv_usec, _7
# osm.cpp:59:      + (end_time.tv_usec -current_time.tv_usec)* 1e3);  
	.loc 1 59 40
	movq	-24(%rbp), %rdx	# current_time.tv_usec, _8
# osm.cpp:59:      + (end_time.tv_usec -current_time.tv_usec)* 1e3);  
	.loc 1 59 26
	subq	%rdx, %rax	# _8, _9
# osm.cpp:59:      + (end_time.tv_usec -current_time.tv_usec)* 1e3);  
	.loc 1 59 48
	pxor	%xmm2, %xmm2	# _10
	cvtsi2sdq	%rax, %xmm2	# _9, _10
	movsd	.LC2(%rip), %xmm0	#, tmp102
	mulsd	%xmm2, %xmm0	# _10, _11
# osm.cpp:59:      + (end_time.tv_usec -current_time.tv_usec)* 1e3);  
	.loc 1 59 6
	addsd	%xmm1, %xmm0	# _6, _12
# osm.cpp:58:     unsigned long nano_exceute_operation = ((end_time.tv_sec -current_time.tv_sec)* 1e9
	.loc 1 58 19
	comisd	.LC3(%rip), %xmm0	#, _12
	jnb	.L19	#,
	cvttsd2siq	%xmm0, %rax	# _12, tmp103
	movq	%rax, -16(%rbp)	# tmp103, nano_exceute_operation
	jmp	.L20	#
.L19:
	movsd	.LC3(%rip), %xmm1	#, tmp105
	subsd	%xmm1, %xmm0	# tmp105, tmp104
	cvttsd2siq	%xmm0, %rax	# tmp104, tmp106
	movq	%rax, -16(%rbp)	# tmp106, nano_exceute_operation
	movabsq	$-9223372036854775808, %rax	#, tmp107
	xorq	%rax, -16(%rbp)	# tmp107, nano_exceute_operation
.L20:
	movq	-16(%rbp), %rax	# nano_exceute_operation, tmp108
	movq	%rax, -16(%rbp)	# tmp108, nano_exceute_operation
# osm.cpp:60:     return (nano_exceute_operation / ((float)iterations));
	.loc 1 60 36
	movq	-16(%rbp), %rax	# nano_exceute_operation, tmp109
	testq	%rax, %rax	# tmp109
	js	.L21	#,
	pxor	%xmm0, %xmm0	# _13
	cvtsi2ssq	%rax, %xmm0	# tmp109, _13
	jmp	.L22	#
.L21:
	movq	%rax, %rdx	# tmp109, tmp111
	shrq	%rdx	# tmp111
	andl	$1, %eax	#, tmp112
	orq	%rax, %rdx	# tmp112, tmp111
	pxor	%xmm0, %xmm0	# tmp110
	cvtsi2ssq	%rdx, %xmm0	# tmp111, tmp110
	addss	%xmm0, %xmm0	# tmp110, _13
.L22:
# osm.cpp:60:     return (nano_exceute_operation / ((float)iterations));
	.loc 1 60 39
	movl	-52(%rbp), %eax	# iterations, tmp113
	testq	%rax, %rax	# tmp113
	js	.L23	#,
	pxor	%xmm1, %xmm1	# _14
	cvtsi2ssq	%rax, %xmm1	# tmp113, _14
	jmp	.L24	#
.L23:
	movq	%rax, %rdx	# tmp113, tmp115
	shrq	%rdx	# tmp115
	andl	$1, %eax	#, tmp116
	orq	%rax, %rdx	# tmp116, tmp115
	pxor	%xmm1, %xmm1	# tmp114
	cvtsi2ssq	%rdx, %xmm1	# tmp115, tmp114
	addss	%xmm1, %xmm1	# tmp114, _14
.L24:
# osm.cpp:60:     return (nano_exceute_operation / ((float)iterations));
	.loc 1 60 36
	divss	%xmm1, %xmm0	# _14, _15
# osm.cpp:60:     return (nano_exceute_operation / ((float)iterations));
	.loc 1 60 57
	cvtss2sd	%xmm0, %xmm0	# _15, _17
.L25:
# osm.cpp:61: }
	.loc 1 61 1 discriminator 1
	movq	%xmm0, %rax	# _17, <retval>
	movq	%rax, %xmm0	# <retval>,
	leave	
	.cfi_def_cfa 7, 8
	ret	
	.cfi_endproc
.LFE1574:
	.size	_Z17osm_function_timej, .-_Z17osm_function_timej
	.globl	_Z16osm_syscall_timej
	.type	_Z16osm_syscall_timej, @function
_Z16osm_syscall_timej:
.LFB1575:
	.loc 1 64 49
	.cfi_startproc
	pushq	%rbp	#
	.cfi_def_cfa_offset 16
	.cfi_offset 6, -16
	movq	%rsp, %rbp	#,
	.cfi_def_cfa_register 6
	pushq	%rbx	#
	subq	$72, %rsp	#,
	.cfi_offset 3, -24
	movl	%edi, -68(%rbp)	# iterations, iterations
# osm.cpp:65:     if (iterations == 0)
	.loc 1 65 5
	cmpl	$0, -68(%rbp)	#, iterations
	jne	.L27	#,
# osm.cpp:67:         return -1;
	.loc 1 67 17
	movsd	.LC0(%rip), %xmm0	#, _17
	jmp	.L37	#
.L27:
# osm.cpp:71:     gettimeofday(&current_time, NULL);
	.loc 1 71 17
	leaq	-48(%rbp), %rax	#, tmp99
	movl	$0, %esi	#,
	movq	%rax, %rdi	# tmp99,
	call	gettimeofday@PLT	#
.LBB4:
# osm.cpp:72:     for (size_t i = 0; i < iterations; i+=10)
	.loc 1 72 17
	movq	$0, -24(%rbp)	#, i
.L30:
# osm.cpp:72:     for (size_t i = 0; i < iterations; i+=10)
	.loc 1 72 28 discriminator 3
	movl	-68(%rbp), %eax	# iterations, _1
# osm.cpp:72:     for (size_t i = 0; i < iterations; i+=10)
	.loc 1 72 26 discriminator 3
	cmpq	%rax, -24(%rbp)	# _1, i
	jnb	.L29	#,
# osm.cpp:74:         OSM_NULLSYSCALL;
	.loc 1 74 9 discriminator 2
	movl	$-1, %eax	#, tmp100
	movl	$0, %esi	#, tmp101
	movl	$0, %ecx	#, tmp102
	movl	$0, %edx	#, tmp103
	movl	%esi, %ebx	# tmp101, tmp101
#APP
# 74 "osm.cpp" 1
	int $0x80 
# 0 "" 2
# osm.cpp:75:         OSM_NULLSYSCALL;
	.loc 1 75 9 discriminator 2
#NO_APP
	movl	$-1, %eax	#, tmp104
	movl	$0, %esi	#, tmp105
	movl	$0, %ecx	#, tmp106
	movl	$0, %edx	#, tmp107
	movl	%esi, %ebx	# tmp105, tmp105
#APP
# 75 "osm.cpp" 1
	int $0x80 
# 0 "" 2
# osm.cpp:76:         OSM_NULLSYSCALL;
	.loc 1 76 9 discriminator 2
#NO_APP
	movl	$-1, %eax	#, tmp108
	movl	$0, %esi	#, tmp109
	movl	$0, %ecx	#, tmp110
	movl	$0, %edx	#, tmp111
	movl	%esi, %ebx	# tmp109, tmp109
#APP
# 76 "osm.cpp" 1
	int $0x80 
# 0 "" 2
# osm.cpp:77:         OSM_NULLSYSCALL;
	.loc 1 77 9 discriminator 2
#NO_APP
	movl	$-1, %eax	#, tmp112
	movl	$0, %esi	#, tmp113
	movl	$0, %ecx	#, tmp114
	movl	$0, %edx	#, tmp115
	movl	%esi, %ebx	# tmp113, tmp113
#APP
# 77 "osm.cpp" 1
	int $0x80 
# 0 "" 2
# osm.cpp:78:         OSM_NULLSYSCALL;
	.loc 1 78 9 discriminator 2
#NO_APP
	movl	$-1, %eax	#, tmp116
	movl	$0, %esi	#, tmp117
	movl	$0, %ecx	#, tmp118
	movl	$0, %edx	#, tmp119
	movl	%esi, %ebx	# tmp117, tmp117
#APP
# 78 "osm.cpp" 1
	int $0x80 
# 0 "" 2
# osm.cpp:79:         OSM_NULLSYSCALL;
	.loc 1 79 9 discriminator 2
#NO_APP
	movl	$-1, %eax	#, tmp120
	movl	$0, %esi	#, tmp121
	movl	$0, %ecx	#, tmp122
	movl	$0, %edx	#, tmp123
	movl	%esi, %ebx	# tmp121, tmp121
#APP
# 79 "osm.cpp" 1
	int $0x80 
# 0 "" 2
# osm.cpp:80:         OSM_NULLSYSCALL;
	.loc 1 80 9 discriminator 2
#NO_APP
	movl	$-1, %eax	#, tmp124
	movl	$0, %esi	#, tmp125
	movl	$0, %ecx	#, tmp126
	movl	$0, %edx	#, tmp127
	movl	%esi, %ebx	# tmp125, tmp125
#APP
# 80 "osm.cpp" 1
	int $0x80 
# 0 "" 2
# osm.cpp:81:         OSM_NULLSYSCALL;
	.loc 1 81 9 discriminator 2
#NO_APP
	movl	$-1, %eax	#, tmp128
	movl	$0, %esi	#, tmp129
	movl	$0, %ecx	#, tmp130
	movl	$0, %edx	#, tmp131
	movl	%esi, %ebx	# tmp129, tmp129
#APP
# 81 "osm.cpp" 1
	int $0x80 
# 0 "" 2
# osm.cpp:82:         OSM_NULLSYSCALL;
	.loc 1 82 9 discriminator 2
#NO_APP
	movl	$-1, %eax	#, tmp132
	movl	$0, %esi	#, tmp133
	movl	$0, %ecx	#, tmp134
	movl	$0, %edx	#, tmp135
	movl	%esi, %ebx	# tmp133, tmp133
#APP
# 82 "osm.cpp" 1
	int $0x80 
# 0 "" 2
# osm.cpp:83:         OSM_NULLSYSCALL;
	.loc 1 83 9 discriminator 2
#NO_APP
	movl	$-1, %eax	#, tmp136
	movl	$0, %esi	#, tmp137
	movl	$0, %ecx	#, tmp138
	movl	$0, %edx	#, tmp139
	movl	%esi, %ebx	# tmp137, tmp137
#APP
# 83 "osm.cpp" 1
	int $0x80 
# 0 "" 2
# osm.cpp:72:     for (size_t i = 0; i < iterations; i+=10)
	.loc 1 72 41 discriminator 2
#NO_APP
	addq	$10, -24(%rbp)	#, i
# osm.cpp:72:     for (size_t i = 0; i < iterations; i+=10)
	.loc 1 72 5 discriminator 2
	jmp	.L30	#
.L29:
.LBE4:
# osm.cpp:86:     gettimeofday(&end_time, NULL);
	.loc 1 86 17
	leaq	-64(%rbp), %rax	#, tmp140
	movl	$0, %esi	#,
	movq	%rax, %rdi	# tmp140,
	call	gettimeofday@PLT	#
# osm.cpp:87:     unsigned long nano_exceute_operation = ((end_time.tv_sec -current_time.tv_sec)* 1e9
	.loc 1 87 55
	movq	-64(%rbp), %rax	# end_time.tv_sec, _2
# osm.cpp:87:     unsigned long nano_exceute_operation = ((end_time.tv_sec -current_time.tv_sec)* 1e9
	.loc 1 87 76
	movq	-48(%rbp), %rdx	# current_time.tv_sec, _3
# osm.cpp:87:     unsigned long nano_exceute_operation = ((end_time.tv_sec -current_time.tv_sec)* 1e9
	.loc 1 87 62
	subq	%rdx, %rax	# _3, _4
# osm.cpp:87:     unsigned long nano_exceute_operation = ((end_time.tv_sec -current_time.tv_sec)* 1e9
	.loc 1 87 83
	pxor	%xmm1, %xmm1	# _5
	cvtsi2sdq	%rax, %xmm1	# _4, _5
	movsd	.LC1(%rip), %xmm0	#, tmp141
	mulsd	%xmm0, %xmm1	# tmp141, _6
# osm.cpp:88:      + (end_time.tv_usec -current_time.tv_usec)* 1e3);  
	.loc 1 88 18
	movq	-56(%rbp), %rax	# end_time.tv_usec, _7
# osm.cpp:88:      + (end_time.tv_usec -current_time.tv_usec)* 1e3);  
	.loc 1 88 40
	movq	-40(%rbp), %rdx	# current_time.tv_usec, _8
# osm.cpp:88:      + (end_time.tv_usec -current_time.tv_usec)* 1e3);  
	.loc 1 88 26
	subq	%rdx, %rax	# _8, _9
# osm.cpp:88:      + (end_time.tv_usec -current_time.tv_usec)* 1e3);  
	.loc 1 88 48
	pxor	%xmm2, %xmm2	# _10
	cvtsi2sdq	%rax, %xmm2	# _9, _10
	movsd	.LC2(%rip), %xmm0	#, tmp142
	mulsd	%xmm2, %xmm0	# _10, _11
# osm.cpp:88:      + (end_time.tv_usec -current_time.tv_usec)* 1e3);  
	.loc 1 88 6
	addsd	%xmm1, %xmm0	# _6, _12
# osm.cpp:87:     unsigned long nano_exceute_operation = ((end_time.tv_sec -current_time.tv_sec)* 1e9
	.loc 1 87 19
	comisd	.LC3(%rip), %xmm0	#, _12
	jnb	.L31	#,
	cvttsd2siq	%xmm0, %rax	# _12, tmp143
	movq	%rax, -32(%rbp)	# tmp143, nano_exceute_operation
	jmp	.L32	#
.L31:
	movsd	.LC3(%rip), %xmm1	#, tmp145
	subsd	%xmm1, %xmm0	# tmp145, tmp144
	cvttsd2siq	%xmm0, %rax	# tmp144, tmp146
	movq	%rax, -32(%rbp)	# tmp146, nano_exceute_operation
	movabsq	$-9223372036854775808, %rax	#, tmp147
	xorq	%rax, -32(%rbp)	# tmp147, nano_exceute_operation
.L32:
	movq	-32(%rbp), %rax	# nano_exceute_operation, tmp148
	movq	%rax, -32(%rbp)	# tmp148, nano_exceute_operation
# osm.cpp:89:     return (nano_exceute_operation / ((float)iterations));
	.loc 1 89 36
	movq	-32(%rbp), %rax	# nano_exceute_operation, tmp149
	testq	%rax, %rax	# tmp149
	js	.L33	#,
	pxor	%xmm0, %xmm0	# _13
	cvtsi2ssq	%rax, %xmm0	# tmp149, _13
	jmp	.L34	#
.L33:
	movq	%rax, %rdx	# tmp149, tmp151
	shrq	%rdx	# tmp151
	andl	$1, %eax	#, tmp152
	orq	%rax, %rdx	# tmp152, tmp151
	pxor	%xmm0, %xmm0	# tmp150
	cvtsi2ssq	%rdx, %xmm0	# tmp151, tmp150
	addss	%xmm0, %xmm0	# tmp150, _13
.L34:
# osm.cpp:89:     return (nano_exceute_operation / ((float)iterations));
	.loc 1 89 39
	movl	-68(%rbp), %eax	# iterations, tmp153
	testq	%rax, %rax	# tmp153
	js	.L35	#,
	pxor	%xmm1, %xmm1	# _14
	cvtsi2ssq	%rax, %xmm1	# tmp153, _14
	jmp	.L36	#
.L35:
	movq	%rax, %rdx	# tmp153, tmp155
	shrq	%rdx	# tmp155
	andl	$1, %eax	#, tmp156
	orq	%rax, %rdx	# tmp156, tmp155
	pxor	%xmm1, %xmm1	# tmp154
	cvtsi2ssq	%rdx, %xmm1	# tmp155, tmp154
	addss	%xmm1, %xmm1	# tmp154, _14
.L36:
# osm.cpp:89:     return (nano_exceute_operation / ((float)iterations));
	.loc 1 89 36
	divss	%xmm1, %xmm0	# _14, _15
# osm.cpp:89:     return (nano_exceute_operation / ((float)iterations));
	.loc 1 89 57
	cvtss2sd	%xmm0, %xmm0	# _15, _17
.L37:
# osm.cpp:91: }
	.loc 1 91 1 discriminator 1
	movq	%xmm0, %rax	# _17, <retval>
	movq	%rax, %xmm0	# <retval>,
	movq	-8(%rbp), %rbx	#,
	leave	
	.cfi_def_cfa 7, 8
	ret	
	.cfi_endproc
.LFE1575:
	.size	_Z16osm_syscall_timej, .-_Z16osm_syscall_timej
	.globl	main
	.type	main, @function
main:
.LFB1576:
	.loc 1 94 1
	.cfi_startproc
	pushq	%rbp	#
	.cfi_def_cfa_offset 16
	.cfi_offset 6, -16
	movq	%rsp, %rbp	#,
	.cfi_def_cfa_register 6
	subq	$32, %rsp	#,
# osm.cpp:95:     double addition = osm_operation_time(100000000);
	.loc 1 95 41
	movl	$100000000, %edi	#,
	call	_Z18osm_operation_timej	#
	movq	%xmm0, %rax	#, tmp87
	movq	%rax, -8(%rbp)	# tmp87, addition
# osm.cpp:96:     double no_args_func_call = osm_function_time(100000000);
	.loc 1 96 49
	movl	$100000000, %edi	#,
	call	_Z17osm_function_timej	#
	movq	%xmm0, %rax	#, tmp88
	movq	%rax, -16(%rbp)	# tmp88, no_args_func_call
# osm.cpp:97:     double sys_call = osm_syscall_time(100000000);
	.loc 1 97 39
	movl	$100000000, %edi	#,
	call	_Z16osm_syscall_timej	#
	movq	%xmm0, %rax	#, tmp89
	movq	%rax, -24(%rbp)	# tmp89, sys_call
# osm.cpp:98:     std::cout << addition << endl;
	.loc 1 98 18
	movq	-8(%rbp), %rax	# addition, tmp90
	movq	%rax, %xmm0	# tmp90,
	leaq	_ZSt4cout(%rip), %rdi	#,
	call	_ZNSolsEd@PLT	#
	movq	%rax, %rdx	#, _1
# osm.cpp:98:     std::cout << addition << endl;
	.loc 1 98 30
	movq	_ZSt4endlIcSt11char_traitsIcEERSt13basic_ostreamIT_T0_ES6_@GOTPCREL(%rip), %rax	#, tmp91
	movq	%rax, %rsi	# tmp91,
	movq	%rdx, %rdi	# _1,
	call	_ZNSolsEPFRSoS_E@PLT	#
# osm.cpp:99:     std::cout << no_args_func_call << endl;
	.loc 1 99 18
	movq	-16(%rbp), %rax	# no_args_func_call, tmp92
	movq	%rax, %xmm0	# tmp92,
	leaq	_ZSt4cout(%rip), %rdi	#,
	call	_ZNSolsEd@PLT	#
	movq	%rax, %rdx	#, _2
# osm.cpp:99:     std::cout << no_args_func_call << endl;
	.loc 1 99 39
	movq	_ZSt4endlIcSt11char_traitsIcEERSt13basic_ostreamIT_T0_ES6_@GOTPCREL(%rip), %rax	#, tmp93
	movq	%rax, %rsi	# tmp93,
	movq	%rdx, %rdi	# _2,
	call	_ZNSolsEPFRSoS_E@PLT	#
# osm.cpp:100:     std::cout << sys_call << endl;
	.loc 1 100 18
	movq	-24(%rbp), %rax	# sys_call, tmp94
	movq	%rax, %xmm0	# tmp94,
	leaq	_ZSt4cout(%rip), %rdi	#,
	call	_ZNSolsEd@PLT	#
	movq	%rax, %rdx	#, _3
# osm.cpp:100:     std::cout << sys_call << endl;
	.loc 1 100 30
	movq	_ZSt4endlIcSt11char_traitsIcEERSt13basic_ostreamIT_T0_ES6_@GOTPCREL(%rip), %rax	#, tmp95
	movq	%rax, %rsi	# tmp95,
	movq	%rdx, %rdi	# _3,
	call	_ZNSolsEPFRSoS_E@PLT	#
# osm.cpp:101: }
	.loc 1 101 1
	movl	$0, %eax	#, _20
	leave	
	.cfi_def_cfa 7, 8
	ret	
	.cfi_endproc
.LFE1576:
	.size	main, .-main
	.type	_Z41__static_initialization_and_destruction_0ii, @function
_Z41__static_initialization_and_destruction_0ii:
.LFB2075:
	.loc 1 101 1
	.cfi_startproc
	pushq	%rbp	#
	.cfi_def_cfa_offset 16
	.cfi_offset 6, -16
	movq	%rsp, %rbp	#,
	.cfi_def_cfa_register 6
	subq	$16, %rsp	#,
	movl	%edi, -4(%rbp)	# __initialize_p, __initialize_p
	movl	%esi, -8(%rbp)	# __priority, __priority
# osm.cpp:101: }
	.loc 1 101 1
	cmpl	$1, -4(%rbp)	#, __initialize_p
	jne	.L42	#,
# osm.cpp:101: }
	.loc 1 101 1 is_stmt 0 discriminator 1
	cmpl	$65535, -8(%rbp)	#, __priority
	jne	.L42	#,
# /usr/include/c++/10/iostream:74:   static ios_base::Init __ioinit;
	.file 2 "/usr/include/c++/10/iostream"
	.loc 2 74 25 is_stmt 1
	leaq	_ZStL8__ioinit(%rip), %rdi	#,
	call	_ZNSt8ios_base4InitC1Ev@PLT	#
	leaq	__dso_handle(%rip), %rdx	#,
	leaq	_ZStL8__ioinit(%rip), %rsi	#,
	movq	_ZNSt8ios_base4InitD1Ev@GOTPCREL(%rip), %rax	#, tmp82
	movq	%rax, %rdi	# tmp82,
	call	__cxa_atexit@PLT	#
.L42:
# osm.cpp:101: }
	.loc 1 101 1
	nop	
	leave	
	.cfi_def_cfa 7, 8
	ret	
	.cfi_endproc
.LFE2075:
	.size	_Z41__static_initialization_and_destruction_0ii, .-_Z41__static_initialization_and_destruction_0ii
	.type	_GLOBAL__sub_I__Z18osm_operation_timej, @function
_GLOBAL__sub_I__Z18osm_operation_timej:
.LFB2076:
	.loc 1 101 1
	.cfi_startproc
	pushq	%rbp	#
	.cfi_def_cfa_offset 16
	.cfi_offset 6, -16
	movq	%rsp, %rbp	#,
	.cfi_def_cfa_register 6
# osm.cpp:101: }
	.loc 1 101 1
	movl	$65535, %esi	#,
	movl	$1, %edi	#,
	call	_Z41__static_initialization_and_destruction_0ii	#
	popq	%rbp	#
	.cfi_def_cfa 7, 8
	ret	
	.cfi_endproc
.LFE2076:
	.size	_GLOBAL__sub_I__Z18osm_operation_timej, .-_GLOBAL__sub_I__Z18osm_operation_timej
	.section	.init_array,"aw"
	.align 8
	.quad	_GLOBAL__sub_I__Z18osm_operation_timej
	.section	.rodata
	.align 8
.LC0:
	.long	0
	.long	-1074790400
	.align 8
.LC1:
	.long	0
	.long	1104006501
	.align 8
.LC2:
	.long	0
	.long	1083129856
	.align 8
.LC3:
	.long	0
	.long	1138753536
	.text
.Letext0:
	.file 3 "/usr/include/c++/10/cwchar"
	.file 4 "/usr/include/c++/10/bits/exception_ptr.h"
	.file 5 "/usr/include/x86_64-linux-gnu/c++/10/bits/c++config.h"
	.file 6 "/usr/include/c++/10/type_traits"
	.file 7 "/usr/include/c++/10/bits/cpp_type_traits.h"
	.file 8 "/usr/include/c++/10/bits/stl_pair.h"
	.file 9 "/usr/include/c++/10/debug/debug.h"
	.file 10 "/usr/include/c++/10/bits/char_traits.h"
	.file 11 "/usr/include/c++/10/cstdint"
	.file 12 "/usr/include/c++/10/clocale"
	.file 13 "/usr/include/c++/10/cstdlib"
	.file 14 "/usr/include/c++/10/cstdio"
	.file 15 "/usr/include/c++/10/bits/basic_string.h"
	.file 16 "/usr/include/c++/10/system_error"
	.file 17 "/usr/include/c++/10/bits/ios_base.h"
	.file 18 "/usr/include/c++/10/cwctype"
	.file 19 "/usr/include/c++/10/iosfwd"
	.file 20 "/usr/include/c++/10/bits/predefined_ops.h"
	.file 21 "/usr/lib/gcc/x86_64-linux-gnu/10/include/stddef.h"
	.file 22 "<built-in>"
	.file 23 "/usr/include/x86_64-linux-gnu/bits/types/wint_t.h"
	.file 24 "/usr/include/x86_64-linux-gnu/bits/types/__mbstate_t.h"
	.file 25 "/usr/include/x86_64-linux-gnu/bits/types/mbstate_t.h"
	.file 26 "/usr/include/x86_64-linux-gnu/bits/types/__FILE.h"
	.file 27 "/usr/include/x86_64-linux-gnu/bits/types/struct_FILE.h"
	.file 28 "/usr/include/x86_64-linux-gnu/bits/types/FILE.h"
	.file 29 "/usr/include/wchar.h"
	.file 30 "/usr/include/x86_64-linux-gnu/bits/types/struct_tm.h"
	.file 31 "/usr/include/x86_64-linux-gnu/bits/types.h"
	.file 32 "/usr/include/x86_64-linux-gnu/bits/stdint-intn.h"
	.file 33 "/usr/include/x86_64-linux-gnu/bits/stdint-uintn.h"
	.file 34 "/usr/include/stdint.h"
	.file 35 "/usr/include/locale.h"
	.file 36 "/usr/include/x86_64-linux-gnu/bits/types/struct_timeval.h"
	.file 37 "/usr/include/x86_64-linux-gnu/c++/10/bits/atomic_word.h"
	.file 38 "/usr/include/stdlib.h"
	.file 39 "/usr/include/x86_64-linux-gnu/bits/types/__fpos_t.h"
	.file 40 "/usr/include/stdio.h"
	.file 41 "/usr/include/x86_64-linux-gnu/bits/wctype-wchar.h"
	.file 42 "/usr/include/wctype.h"
	.section	.debug_info,"",@progbits
.Ldebug_info0:
	.long	0x2631
	.value	0x4
	.long	.Ldebug_abbrev0
	.byte	0x8
	.uleb128 0x1
	.long	.LASF392
	.byte	0x4
	.long	.LASF393
	.long	.LASF394
	.quad	.Ltext0
	.quad	.Letext0-.Ltext0
	.long	.Ldebug_line0
	.uleb128 0x2
	.string	"std"
	.byte	0x16
	.byte	0
	.long	0xbc7
	.uleb128 0x3
	.long	.LASF60
	.byte	0x5
	.value	0x11e
	.byte	0x41
	.uleb128 0x4
	.byte	0x5
	.value	0x11e
	.byte	0x41
	.long	0x38
	.uleb128 0x5
	.byte	0x3
	.byte	0x40
	.byte	0xb
	.long	0xd5d
	.uleb128 0x5
	.byte	0x3
	.byte	0x8d
	.byte	0xb
	.long	0xcd8
	.uleb128 0x5
	.byte	0x3
	.byte	0x8f
	.byte	0xb
	.long	0xf1a
	.uleb128 0x5
	.byte	0x3
	.byte	0x90
	.byte	0xb
	.long	0xf31
	.uleb128 0x5
	.byte	0x3
	.byte	0x91
	.byte	0xb
	.long	0xf4e
	.uleb128 0x5
	.byte	0x3
	.byte	0x92
	.byte	0xb
	.long	0xf81
	.uleb128 0x5
	.byte	0x3
	.byte	0x93
	.byte	0xb
	.long	0xf9d
	.uleb128 0x5
	.byte	0x3
	.byte	0x94
	.byte	0xb
	.long	0xfbf
	.uleb128 0x5
	.byte	0x3
	.byte	0x95
	.byte	0xb
	.long	0xfdb
	.uleb128 0x5
	.byte	0x3
	.byte	0x96
	.byte	0xb
	.long	0xff8
	.uleb128 0x5
	.byte	0x3
	.byte	0x97
	.byte	0xb
	.long	0x1019
	.uleb128 0x5
	.byte	0x3
	.byte	0x98
	.byte	0xb
	.long	0x1030
	.uleb128 0x5
	.byte	0x3
	.byte	0x99
	.byte	0xb
	.long	0x103d
	.uleb128 0x5
	.byte	0x3
	.byte	0x9a
	.byte	0xb
	.long	0x1064
	.uleb128 0x5
	.byte	0x3
	.byte	0x9b
	.byte	0xb
	.long	0x108a
	.uleb128 0x5
	.byte	0x3
	.byte	0x9c
	.byte	0xb
	.long	0x10a7
	.uleb128 0x5
	.byte	0x3
	.byte	0x9d
	.byte	0xb
	.long	0x10d3
	.uleb128 0x5
	.byte	0x3
	.byte	0x9e
	.byte	0xb
	.long	0x10ef
	.uleb128 0x5
	.byte	0x3
	.byte	0xa0
	.byte	0xb
	.long	0x1106
	.uleb128 0x5
	.byte	0x3
	.byte	0xa2
	.byte	0xb
	.long	0x1128
	.uleb128 0x5
	.byte	0x3
	.byte	0xa3
	.byte	0xb
	.long	0x1149
	.uleb128 0x5
	.byte	0x3
	.byte	0xa4
	.byte	0xb
	.long	0x1165
	.uleb128 0x5
	.byte	0x3
	.byte	0xa6
	.byte	0xb
	.long	0x118c
	.uleb128 0x5
	.byte	0x3
	.byte	0xa9
	.byte	0xb
	.long	0x11b1
	.uleb128 0x5
	.byte	0x3
	.byte	0xac
	.byte	0xb
	.long	0x11d7
	.uleb128 0x5
	.byte	0x3
	.byte	0xae
	.byte	0xb
	.long	0x11fc
	.uleb128 0x5
	.byte	0x3
	.byte	0xb0
	.byte	0xb
	.long	0x1218
	.uleb128 0x5
	.byte	0x3
	.byte	0xb2
	.byte	0xb
	.long	0x1238
	.uleb128 0x5
	.byte	0x3
	.byte	0xb3
	.byte	0xb
	.long	0x125f
	.uleb128 0x5
	.byte	0x3
	.byte	0xb4
	.byte	0xb
	.long	0x127a
	.uleb128 0x5
	.byte	0x3
	.byte	0xb5
	.byte	0xb
	.long	0x1295
	.uleb128 0x5
	.byte	0x3
	.byte	0xb6
	.byte	0xb
	.long	0x12b0
	.uleb128 0x5
	.byte	0x3
	.byte	0xb7
	.byte	0xb
	.long	0x12cb
	.uleb128 0x5
	.byte	0x3
	.byte	0xb8
	.byte	0xb
	.long	0x12e6
	.uleb128 0x5
	.byte	0x3
	.byte	0xb9
	.byte	0xb
	.long	0x13b3
	.uleb128 0x5
	.byte	0x3
	.byte	0xba
	.byte	0xb
	.long	0x13c9
	.uleb128 0x5
	.byte	0x3
	.byte	0xbb
	.byte	0xb
	.long	0x13e9
	.uleb128 0x5
	.byte	0x3
	.byte	0xbc
	.byte	0xb
	.long	0x1409
	.uleb128 0x5
	.byte	0x3
	.byte	0xbd
	.byte	0xb
	.long	0x1429
	.uleb128 0x5
	.byte	0x3
	.byte	0xbe
	.byte	0xb
	.long	0x1455
	.uleb128 0x5
	.byte	0x3
	.byte	0xbf
	.byte	0xb
	.long	0x1470
	.uleb128 0x5
	.byte	0x3
	.byte	0xc1
	.byte	0xb
	.long	0x1492
	.uleb128 0x5
	.byte	0x3
	.byte	0xc3
	.byte	0xb
	.long	0x14ae
	.uleb128 0x5
	.byte	0x3
	.byte	0xc4
	.byte	0xb
	.long	0x14ce
	.uleb128 0x5
	.byte	0x3
	.byte	0xc5
	.byte	0xb
	.long	0x14f6
	.uleb128 0x5
	.byte	0x3
	.byte	0xc6
	.byte	0xb
	.long	0x1517
	.uleb128 0x5
	.byte	0x3
	.byte	0xc7
	.byte	0xb
	.long	0x1537
	.uleb128 0x5
	.byte	0x3
	.byte	0xc8
	.byte	0xb
	.long	0x154e
	.uleb128 0x5
	.byte	0x3
	.byte	0xc9
	.byte	0xb
	.long	0x156f
	.uleb128 0x5
	.byte	0x3
	.byte	0xca
	.byte	0xb
	.long	0x1590
	.uleb128 0x5
	.byte	0x3
	.byte	0xcb
	.byte	0xb
	.long	0x15b1
	.uleb128 0x5
	.byte	0x3
	.byte	0xcc
	.byte	0xb
	.long	0x15d2
	.uleb128 0x5
	.byte	0x3
	.byte	0xcd
	.byte	0xb
	.long	0x15ea
	.uleb128 0x5
	.byte	0x3
	.byte	0xce
	.byte	0xb
	.long	0x1606
	.uleb128 0x5
	.byte	0x3
	.byte	0xce
	.byte	0xb
	.long	0x1625
	.uleb128 0x5
	.byte	0x3
	.byte	0xcf
	.byte	0xb
	.long	0x1644
	.uleb128 0x5
	.byte	0x3
	.byte	0xcf
	.byte	0xb
	.long	0x1663
	.uleb128 0x5
	.byte	0x3
	.byte	0xd0
	.byte	0xb
	.long	0x1682
	.uleb128 0x5
	.byte	0x3
	.byte	0xd0
	.byte	0xb
	.long	0x16a1
	.uleb128 0x5
	.byte	0x3
	.byte	0xd1
	.byte	0xb
	.long	0x16c0
	.uleb128 0x5
	.byte	0x3
	.byte	0xd1
	.byte	0xb
	.long	0x16df
	.uleb128 0x5
	.byte	0x3
	.byte	0xd2
	.byte	0xb
	.long	0x16fe
	.uleb128 0x5
	.byte	0x3
	.byte	0xd2
	.byte	0xb
	.long	0x1722
	.uleb128 0x6
	.byte	0x3
	.value	0x10b
	.byte	0x16
	.long	0x1746
	.uleb128 0x6
	.byte	0x3
	.value	0x10c
	.byte	0x16
	.long	0x1762
	.uleb128 0x6
	.byte	0x3
	.value	0x10d
	.byte	0x16
	.long	0x178a
	.uleb128 0x6
	.byte	0x3
	.value	0x11b
	.byte	0xe
	.long	0x1492
	.uleb128 0x6
	.byte	0x3
	.value	0x11e
	.byte	0xe
	.long	0x118c
	.uleb128 0x6
	.byte	0x3
	.value	0x121
	.byte	0xe
	.long	0x11d7
	.uleb128 0x6
	.byte	0x3
	.value	0x124
	.byte	0xe
	.long	0x1218
	.uleb128 0x6
	.byte	0x3
	.value	0x128
	.byte	0xe
	.long	0x1746
	.uleb128 0x6
	.byte	0x3
	.value	0x129
	.byte	0xe
	.long	0x1762
	.uleb128 0x6
	.byte	0x3
	.value	0x12a
	.byte	0xe
	.long	0x178a
	.uleb128 0x7
	.long	.LASF74
	.byte	0x4
	.byte	0x35
	.byte	0xd
	.long	0x47f
	.uleb128 0x8
	.long	.LASF4
	.byte	0x8
	.byte	0x4
	.byte	0x50
	.byte	0xb
	.long	0x471
	.uleb128 0x9
	.long	.LASF91
	.byte	0x4
	.byte	0x52
	.byte	0xd
	.long	0xcd6
	.byte	0
	.uleb128 0xa
	.long	.LASF4
	.byte	0x4
	.byte	0x54
	.byte	0x10
	.long	.LASF6
	.long	0x2d6
	.long	0x2e1
	.uleb128 0xb
	.long	0x17b7
	.uleb128 0xc
	.long	0xcd6
	.byte	0
	.uleb128 0xd
	.long	.LASF0
	.byte	0x4
	.byte	0x56
	.byte	0xc
	.long	.LASF2
	.long	0x2f5
	.long	0x2fb
	.uleb128 0xb
	.long	0x17b7
	.byte	0
	.uleb128 0xd
	.long	.LASF1
	.byte	0x4
	.byte	0x57
	.byte	0xc
	.long	.LASF3
	.long	0x30f
	.long	0x315
	.uleb128 0xb
	.long	0x17b7
	.byte	0
	.uleb128 0xe
	.long	.LASF5
	.byte	0x4
	.byte	0x59
	.byte	0xd
	.long	.LASF7
	.long	0xcd6
	.long	0x32d
	.long	0x333
	.uleb128 0xb
	.long	0x17bd
	.byte	0
	.uleb128 0xf
	.long	.LASF4
	.byte	0x4
	.byte	0x61
	.byte	0x7
	.long	.LASF8
	.byte	0x1
	.long	0x348
	.long	0x34e
	.uleb128 0xb
	.long	0x17b7
	.byte	0
	.uleb128 0xf
	.long	.LASF4
	.byte	0x4
	.byte	0x63
	.byte	0x7
	.long	.LASF9
	.byte	0x1
	.long	0x363
	.long	0x36e
	.uleb128 0xb
	.long	0x17b7
	.uleb128 0xc
	.long	0x17c3
	.byte	0
	.uleb128 0xf
	.long	.LASF4
	.byte	0x4
	.byte	0x66
	.byte	0x7
	.long	.LASF10
	.byte	0x1
	.long	0x383
	.long	0x38e
	.uleb128 0xb
	.long	0x17b7
	.uleb128 0xc
	.long	0x49d
	.byte	0
	.uleb128 0xf
	.long	.LASF4
	.byte	0x4
	.byte	0x6a
	.byte	0x7
	.long	.LASF11
	.byte	0x1
	.long	0x3a3
	.long	0x3ae
	.uleb128 0xb
	.long	0x17b7
	.uleb128 0xc
	.long	0x17c9
	.byte	0
	.uleb128 0x10
	.long	.LASF12
	.byte	0x4
	.byte	0x77
	.byte	0x7
	.long	.LASF13
	.long	0x17cf
	.byte	0x1
	.long	0x3c7
	.long	0x3d2
	.uleb128 0xb
	.long	0x17b7
	.uleb128 0xc
	.long	0x17c3
	.byte	0
	.uleb128 0x10
	.long	.LASF12
	.byte	0x4
	.byte	0x7b
	.byte	0x7
	.long	.LASF14
	.long	0x17cf
	.byte	0x1
	.long	0x3eb
	.long	0x3f6
	.uleb128 0xb
	.long	0x17b7
	.uleb128 0xc
	.long	0x17c9
	.byte	0
	.uleb128 0xf
	.long	.LASF15
	.byte	0x4
	.byte	0x82
	.byte	0x7
	.long	.LASF16
	.byte	0x1
	.long	0x40b
	.long	0x416
	.uleb128 0xb
	.long	0x17b7
	.uleb128 0xb
	.long	0xd4a
	.byte	0
	.uleb128 0xf
	.long	.LASF17
	.byte	0x4
	.byte	0x85
	.byte	0x7
	.long	.LASF18
	.byte	0x1
	.long	0x42b
	.long	0x436
	.uleb128 0xb
	.long	0x17b7
	.uleb128 0xc
	.long	0x17cf
	.byte	0
	.uleb128 0x11
	.long	.LASF66
	.byte	0x4
	.byte	0x91
	.byte	0x10
	.long	.LASF382
	.long	0x17d5
	.byte	0x1
	.long	0x44f
	.long	0x455
	.uleb128 0xb
	.long	0x17bd
	.byte	0
	.uleb128 0x12
	.long	.LASF19
	.byte	0x4
	.byte	0x9a
	.byte	0x7
	.long	.LASF20
	.long	0x17dc
	.byte	0x1
	.long	0x46a
	.uleb128 0xb
	.long	0x17bd
	.byte	0
	.byte	0
	.uleb128 0x13
	.long	0x2a8
	.uleb128 0x5
	.byte	0x4
	.byte	0x4a
	.byte	0x10
	.long	0x487
	.byte	0
	.uleb128 0x5
	.byte	0x4
	.byte	0x3a
	.byte	0x1a
	.long	0x2a8
	.uleb128 0x14
	.long	.LASF21
	.byte	0x4
	.byte	0x46
	.byte	0x8
	.long	.LASF22
	.long	0x49d
	.uleb128 0xc
	.long	0x2a8
	.byte	0
	.uleb128 0x15
	.long	.LASF23
	.byte	0x5
	.value	0x10c
	.byte	0x1d
	.long	0x17b2
	.uleb128 0x16
	.long	.LASF395
	.uleb128 0x13
	.long	0x4aa
	.uleb128 0x15
	.long	.LASF24
	.byte	0x5
	.value	0x108
	.byte	0x1a
	.long	0xc8b
	.uleb128 0x17
	.long	.LASF25
	.byte	0x6
	.value	0xa68
	.byte	0xd
	.uleb128 0x17
	.long	.LASF26
	.byte	0x6
	.value	0xabc
	.byte	0xd
	.uleb128 0x18
	.long	.LASF27
	.byte	0x1
	.byte	0x7
	.byte	0x7f
	.byte	0xc
	.long	0x4ff
	.uleb128 0x19
	.byte	0x7
	.byte	0x4
	.long	0xccf
	.byte	0x7
	.byte	0x81
	.byte	0xc
	.long	0x4f5
	.uleb128 0x1a
	.long	.LASF29
	.byte	0
	.byte	0
	.uleb128 0x1b
	.string	"_Tp"
	.long	0xc78
	.byte	0
	.uleb128 0x18
	.long	.LASF28
	.byte	0x1
	.byte	0x7
	.byte	0x7f
	.byte	0xc
	.long	0x52b
	.uleb128 0x19
	.byte	0x7
	.byte	0x4
	.long	0xccf
	.byte	0x7
	.byte	0x81
	.byte	0xc
	.long	0x521
	.uleb128 0x1a
	.long	.LASF29
	.byte	0
	.byte	0
	.uleb128 0x1b
	.string	"_Tp"
	.long	0xc71
	.byte	0
	.uleb128 0x18
	.long	.LASF30
	.byte	0x1
	.byte	0x7
	.byte	0x7f
	.byte	0xc
	.long	0x557
	.uleb128 0x19
	.byte	0x7
	.byte	0x4
	.long	0xccf
	.byte	0x7
	.byte	0x81
	.byte	0xc
	.long	0x54d
	.uleb128 0x1a
	.long	.LASF29
	.byte	0
	.byte	0
	.uleb128 0x1b
	.string	"_Tp"
	.long	0xc6a
	.byte	0
	.uleb128 0x18
	.long	.LASF31
	.byte	0x1
	.byte	0x8
	.byte	0x50
	.byte	0xa
	.long	0x57c
	.uleb128 0x1c
	.long	.LASF31
	.byte	0x8
	.byte	0x50
	.byte	0x2b
	.long	.LASF32
	.byte	0x1
	.long	0x575
	.uleb128 0xb
	.long	0x1813
	.byte	0
	.byte	0
	.uleb128 0x13
	.long	0x557
	.uleb128 0x1d
	.long	.LASF72
	.byte	0x8
	.byte	0x53
	.byte	0x35
	.long	0x57c
	.byte	0x1
	.byte	0
	.uleb128 0x1e
	.long	.LASF33
	.byte	0x9
	.byte	0x32
	.byte	0xd
	.uleb128 0x1f
	.long	.LASF34
	.byte	0x1
	.byte	0xa
	.value	0x13c
	.byte	0xc
	.long	0x783
	.uleb128 0x20
	.long	.LASF48
	.byte	0xa
	.value	0x148
	.byte	0x7
	.long	.LASF396
	.long	0x5c1
	.uleb128 0xc
	.long	0x1833
	.uleb128 0xc
	.long	0x1839
	.byte	0
	.uleb128 0x15
	.long	.LASF35
	.byte	0xa
	.value	0x13e
	.byte	0x21
	.long	0xd3e
	.uleb128 0x13
	.long	0x5c1
	.uleb128 0x21
	.string	"eq"
	.byte	0xa
	.value	0x14c
	.byte	0x7
	.long	.LASF36
	.long	0x17d5
	.long	0x5f2
	.uleb128 0xc
	.long	0x1839
	.uleb128 0xc
	.long	0x1839
	.byte	0
	.uleb128 0x21
	.string	"lt"
	.byte	0xa
	.value	0x150
	.byte	0x7
	.long	.LASF37
	.long	0x17d5
	.long	0x611
	.uleb128 0xc
	.long	0x1839
	.uleb128 0xc
	.long	0x1839
	.byte	0
	.uleb128 0x22
	.long	.LASF38
	.byte	0xa
	.value	0x158
	.byte	0x7
	.long	.LASF40
	.long	0xd4a
	.long	0x636
	.uleb128 0xc
	.long	0x183f
	.uleb128 0xc
	.long	0x183f
	.uleb128 0xc
	.long	0x4b4
	.byte	0
	.uleb128 0x22
	.long	.LASF39
	.byte	0xa
	.value	0x166
	.byte	0x7
	.long	.LASF41
	.long	0x4b4
	.long	0x651
	.uleb128 0xc
	.long	0x183f
	.byte	0
	.uleb128 0x22
	.long	.LASF42
	.byte	0xa
	.value	0x170
	.byte	0x7
	.long	.LASF43
	.long	0x183f
	.long	0x676
	.uleb128 0xc
	.long	0x183f
	.uleb128 0xc
	.long	0x4b4
	.uleb128 0xc
	.long	0x1839
	.byte	0
	.uleb128 0x22
	.long	.LASF44
	.byte	0xa
	.value	0x17e
	.byte	0x7
	.long	.LASF45
	.long	0x1845
	.long	0x69b
	.uleb128 0xc
	.long	0x1845
	.uleb128 0xc
	.long	0x183f
	.uleb128 0xc
	.long	0x4b4
	.byte	0
	.uleb128 0x22
	.long	.LASF46
	.byte	0xa
	.value	0x18a
	.byte	0x7
	.long	.LASF47
	.long	0x1845
	.long	0x6c0
	.uleb128 0xc
	.long	0x1845
	.uleb128 0xc
	.long	0x183f
	.uleb128 0xc
	.long	0x4b4
	.byte	0
	.uleb128 0x22
	.long	.LASF48
	.byte	0xa
	.value	0x196
	.byte	0x7
	.long	.LASF49
	.long	0x1845
	.long	0x6e5
	.uleb128 0xc
	.long	0x1845
	.uleb128 0xc
	.long	0x4b4
	.uleb128 0xc
	.long	0x5c1
	.byte	0
	.uleb128 0x22
	.long	.LASF50
	.byte	0xa
	.value	0x1a2
	.byte	0x7
	.long	.LASF51
	.long	0x5c1
	.long	0x700
	.uleb128 0xc
	.long	0x184b
	.byte	0
	.uleb128 0x15
	.long	.LASF52
	.byte	0xa
	.value	0x13f
	.byte	0x21
	.long	0xd4a
	.uleb128 0x13
	.long	0x700
	.uleb128 0x22
	.long	.LASF53
	.byte	0xa
	.value	0x1a8
	.byte	0x7
	.long	.LASF54
	.long	0x700
	.long	0x72d
	.uleb128 0xc
	.long	0x1839
	.byte	0
	.uleb128 0x22
	.long	.LASF55
	.byte	0xa
	.value	0x1ac
	.byte	0x7
	.long	.LASF56
	.long	0x17d5
	.long	0x74d
	.uleb128 0xc
	.long	0x184b
	.uleb128 0xc
	.long	0x184b
	.byte	0
	.uleb128 0x23
	.string	"eof"
	.byte	0xa
	.value	0x1b0
	.byte	0x7
	.long	.LASF397
	.long	0x700
	.uleb128 0x22
	.long	.LASF57
	.byte	0xa
	.value	0x1b4
	.byte	0x7
	.long	.LASF58
	.long	0x700
	.long	0x779
	.uleb128 0xc
	.long	0x184b
	.byte	0
	.uleb128 0x24
	.long	.LASF59
	.long	0xd3e
	.byte	0
	.uleb128 0x5
	.byte	0xb
	.byte	0x2f
	.byte	0xb
	.long	0x195e
	.uleb128 0x5
	.byte	0xb
	.byte	0x30
	.byte	0xb
	.long	0x196a
	.uleb128 0x5
	.byte	0xb
	.byte	0x31
	.byte	0xb
	.long	0x1976
	.uleb128 0x5
	.byte	0xb
	.byte	0x32
	.byte	0xb
	.long	0x1982
	.uleb128 0x5
	.byte	0xb
	.byte	0x34
	.byte	0xb
	.long	0x1a1e
	.uleb128 0x5
	.byte	0xb
	.byte	0x35
	.byte	0xb
	.long	0x1a2a
	.uleb128 0x5
	.byte	0xb
	.byte	0x36
	.byte	0xb
	.long	0x1a36
	.uleb128 0x5
	.byte	0xb
	.byte	0x37
	.byte	0xb
	.long	0x1a42
	.uleb128 0x5
	.byte	0xb
	.byte	0x39
	.byte	0xb
	.long	0x19be
	.uleb128 0x5
	.byte	0xb
	.byte	0x3a
	.byte	0xb
	.long	0x19ca
	.uleb128 0x5
	.byte	0xb
	.byte	0x3b
	.byte	0xb
	.long	0x19d6
	.uleb128 0x5
	.byte	0xb
	.byte	0x3c
	.byte	0xb
	.long	0x19e2
	.uleb128 0x5
	.byte	0xb
	.byte	0x3e
	.byte	0xb
	.long	0x1a96
	.uleb128 0x5
	.byte	0xb
	.byte	0x3f
	.byte	0xb
	.long	0x1a7e
	.uleb128 0x5
	.byte	0xb
	.byte	0x41
	.byte	0xb
	.long	0x198e
	.uleb128 0x5
	.byte	0xb
	.byte	0x42
	.byte	0xb
	.long	0x199a
	.uleb128 0x5
	.byte	0xb
	.byte	0x43
	.byte	0xb
	.long	0x19a6
	.uleb128 0x5
	.byte	0xb
	.byte	0x44
	.byte	0xb
	.long	0x19b2
	.uleb128 0x5
	.byte	0xb
	.byte	0x46
	.byte	0xb
	.long	0x1a4e
	.uleb128 0x5
	.byte	0xb
	.byte	0x47
	.byte	0xb
	.long	0x1a5a
	.uleb128 0x5
	.byte	0xb
	.byte	0x48
	.byte	0xb
	.long	0x1a66
	.uleb128 0x5
	.byte	0xb
	.byte	0x49
	.byte	0xb
	.long	0x1a72
	.uleb128 0x5
	.byte	0xb
	.byte	0x4b
	.byte	0xb
	.long	0x19ee
	.uleb128 0x5
	.byte	0xb
	.byte	0x4c
	.byte	0xb
	.long	0x19fa
	.uleb128 0x5
	.byte	0xb
	.byte	0x4d
	.byte	0xb
	.long	0x1a06
	.uleb128 0x5
	.byte	0xb
	.byte	0x4e
	.byte	0xb
	.long	0x1a12
	.uleb128 0x5
	.byte	0xb
	.byte	0x50
	.byte	0xb
	.long	0x1aa2
	.uleb128 0x5
	.byte	0xb
	.byte	0x51
	.byte	0xb
	.long	0x1a8a
	.uleb128 0x5
	.byte	0xc
	.byte	0x35
	.byte	0xb
	.long	0x1aae
	.uleb128 0x5
	.byte	0xc
	.byte	0x36
	.byte	0xb
	.long	0x1bf4
	.uleb128 0x5
	.byte	0xc
	.byte	0x37
	.byte	0xb
	.long	0x1c0f
	.uleb128 0x5
	.byte	0xd
	.byte	0x7f
	.byte	0xb
	.long	0x1c84
	.uleb128 0x5
	.byte	0xd
	.byte	0x80
	.byte	0xb
	.long	0x1cb8
	.uleb128 0x5
	.byte	0xd
	.byte	0x86
	.byte	0xb
	.long	0x1d1f
	.uleb128 0x5
	.byte	0xd
	.byte	0x89
	.byte	0xb
	.long	0x1d3d
	.uleb128 0x5
	.byte	0xd
	.byte	0x8c
	.byte	0xb
	.long	0x1d58
	.uleb128 0x5
	.byte	0xd
	.byte	0x8d
	.byte	0xb
	.long	0x1d6e
	.uleb128 0x5
	.byte	0xd
	.byte	0x8e
	.byte	0xb
	.long	0x1d84
	.uleb128 0x5
	.byte	0xd
	.byte	0x8f
	.byte	0xb
	.long	0x1d9a
	.uleb128 0x5
	.byte	0xd
	.byte	0x91
	.byte	0xb
	.long	0x1dc5
	.uleb128 0x5
	.byte	0xd
	.byte	0x94
	.byte	0xb
	.long	0x1de1
	.uleb128 0x5
	.byte	0xd
	.byte	0x96
	.byte	0xb
	.long	0x1df8
	.uleb128 0x5
	.byte	0xd
	.byte	0x99
	.byte	0xb
	.long	0x1e14
	.uleb128 0x5
	.byte	0xd
	.byte	0x9a
	.byte	0xb
	.long	0x1e30
	.uleb128 0x5
	.byte	0xd
	.byte	0x9b
	.byte	0xb
	.long	0x1e51
	.uleb128 0x5
	.byte	0xd
	.byte	0x9d
	.byte	0xb
	.long	0x1e72
	.uleb128 0x5
	.byte	0xd
	.byte	0xa0
	.byte	0xb
	.long	0x1e94
	.uleb128 0x5
	.byte	0xd
	.byte	0xa3
	.byte	0xb
	.long	0x1ea7
	.uleb128 0x5
	.byte	0xd
	.byte	0xa5
	.byte	0xb
	.long	0x1eb4
	.uleb128 0x5
	.byte	0xd
	.byte	0xa6
	.byte	0xb
	.long	0x1ec7
	.uleb128 0x5
	.byte	0xd
	.byte	0xa7
	.byte	0xb
	.long	0x1ee8
	.uleb128 0x5
	.byte	0xd
	.byte	0xa8
	.byte	0xb
	.long	0x1f08
	.uleb128 0x5
	.byte	0xd
	.byte	0xa9
	.byte	0xb
	.long	0x1f28
	.uleb128 0x5
	.byte	0xd
	.byte	0xab
	.byte	0xb
	.long	0x1f3f
	.uleb128 0x5
	.byte	0xd
	.byte	0xac
	.byte	0xb
	.long	0x1f60
	.uleb128 0x5
	.byte	0xd
	.byte	0xf0
	.byte	0x16
	.long	0x1cec
	.uleb128 0x5
	.byte	0xd
	.byte	0xf5
	.byte	0x16
	.long	0xc40
	.uleb128 0x5
	.byte	0xd
	.byte	0xf6
	.byte	0x16
	.long	0x1f7c
	.uleb128 0x5
	.byte	0xd
	.byte	0xf8
	.byte	0x16
	.long	0x1f98
	.uleb128 0x5
	.byte	0xd
	.byte	0xf9
	.byte	0x16
	.long	0x1fee
	.uleb128 0x5
	.byte	0xd
	.byte	0xfa
	.byte	0x16
	.long	0x1fae
	.uleb128 0x5
	.byte	0xd
	.byte	0xfb
	.byte	0x16
	.long	0x1fce
	.uleb128 0x5
	.byte	0xd
	.byte	0xfc
	.byte	0x16
	.long	0x2009
	.uleb128 0x5
	.byte	0xe
	.byte	0x62
	.byte	0xb
	.long	0xf01
	.uleb128 0x5
	.byte	0xe
	.byte	0x63
	.byte	0xb
	.long	0x20ad
	.uleb128 0x5
	.byte	0xe
	.byte	0x65
	.byte	0xb
	.long	0x20c4
	.uleb128 0x5
	.byte	0xe
	.byte	0x66
	.byte	0xb
	.long	0x20d7
	.uleb128 0x5
	.byte	0xe
	.byte	0x67
	.byte	0xb
	.long	0x20ed
	.uleb128 0x5
	.byte	0xe
	.byte	0x68
	.byte	0xb
	.long	0x2104
	.uleb128 0x5
	.byte	0xe
	.byte	0x69
	.byte	0xb
	.long	0x211b
	.uleb128 0x5
	.byte	0xe
	.byte	0x6a
	.byte	0xb
	.long	0x2131
	.uleb128 0x5
	.byte	0xe
	.byte	0x6b
	.byte	0xb
	.long	0x2148
	.uleb128 0x5
	.byte	0xe
	.byte	0x6c
	.byte	0xb
	.long	0x216a
	.uleb128 0x5
	.byte	0xe
	.byte	0x6d
	.byte	0xb
	.long	0x218b
	.uleb128 0x5
	.byte	0xe
	.byte	0x71
	.byte	0xb
	.long	0x21a6
	.uleb128 0x5
	.byte	0xe
	.byte	0x72
	.byte	0xb
	.long	0x21cc
	.uleb128 0x5
	.byte	0xe
	.byte	0x74
	.byte	0xb
	.long	0x21ec
	.uleb128 0x5
	.byte	0xe
	.byte	0x75
	.byte	0xb
	.long	0x220d
	.uleb128 0x5
	.byte	0xe
	.byte	0x76
	.byte	0xb
	.long	0x222f
	.uleb128 0x5
	.byte	0xe
	.byte	0x78
	.byte	0xb
	.long	0x2246
	.uleb128 0x5
	.byte	0xe
	.byte	0x79
	.byte	0xb
	.long	0x225d
	.uleb128 0x5
	.byte	0xe
	.byte	0x7e
	.byte	0xb
	.long	0x226a
	.uleb128 0x5
	.byte	0xe
	.byte	0x83
	.byte	0xb
	.long	0x227d
	.uleb128 0x5
	.byte	0xe
	.byte	0x84
	.byte	0xb
	.long	0x2293
	.uleb128 0x5
	.byte	0xe
	.byte	0x85
	.byte	0xb
	.long	0x22ae
	.uleb128 0x5
	.byte	0xe
	.byte	0x87
	.byte	0xb
	.long	0x22c1
	.uleb128 0x5
	.byte	0xe
	.byte	0x88
	.byte	0xb
	.long	0x22d9
	.uleb128 0x5
	.byte	0xe
	.byte	0x8b
	.byte	0xb
	.long	0x22ff
	.uleb128 0x5
	.byte	0xe
	.byte	0x8d
	.byte	0xb
	.long	0x230b
	.uleb128 0x5
	.byte	0xe
	.byte	0x8f
	.byte	0xb
	.long	0x2321
	.uleb128 0x25
	.long	.LASF398
	.byte	0xf
	.value	0x1ae9
	.byte	0x14
	.long	0xa73
	.uleb128 0x3
	.long	.LASF61
	.byte	0xf
	.value	0x1aeb
	.byte	0x14
	.uleb128 0x4
	.byte	0xf
	.value	0x1aeb
	.byte	0x14
	.long	0xa60
	.byte	0
	.uleb128 0x4
	.byte	0xf
	.value	0x1ae9
	.byte	0x14
	.long	0xa53
	.uleb128 0x26
	.string	"_V2"
	.byte	0x10
	.byte	0x4e
	.byte	0x14
	.uleb128 0x27
	.byte	0x10
	.byte	0x4e
	.byte	0x14
	.long	0xa7c
	.uleb128 0x28
	.long	.LASF69
	.long	0xb4a
	.uleb128 0x29
	.long	.LASF62
	.byte	0x1
	.byte	0x11
	.value	0x272
	.byte	0xb
	.byte	0x1
	.long	0xb44
	.uleb128 0x2a
	.long	.LASF62
	.byte	0x11
	.value	0x276
	.byte	0x7
	.long	.LASF64
	.byte	0x1
	.long	0xaba
	.long	0xac0
	.uleb128 0xb
	.long	0x233d
	.byte	0
	.uleb128 0x2a
	.long	.LASF63
	.byte	0x11
	.value	0x277
	.byte	0x7
	.long	.LASF65
	.byte	0x1
	.long	0xad6
	.long	0xae1
	.uleb128 0xb
	.long	0x233d
	.uleb128 0xb
	.long	0xd4a
	.byte	0
	.uleb128 0x2b
	.long	.LASF62
	.byte	0x11
	.value	0x27a
	.byte	0x7
	.long	.LASF399
	.byte	0x1
	.byte	0x1
	.long	0xaf8
	.long	0xb03
	.uleb128 0xb
	.long	0x233d
	.uleb128 0xc
	.long	0x2343
	.byte	0
	.uleb128 0x2c
	.long	.LASF12
	.byte	0x11
	.value	0x27b
	.byte	0xd
	.long	.LASF400
	.long	0x2349
	.byte	0x1
	.byte	0x1
	.long	0xb1e
	.long	0xb29
	.uleb128 0xb
	.long	0x233d
	.uleb128 0xc
	.long	0x2343
	.byte	0
	.uleb128 0x2d
	.long	.LASF67
	.byte	0x11
	.value	0x27f
	.byte	0x1b
	.long	0x1c49
	.uleb128 0x2d
	.long	.LASF68
	.byte	0x11
	.value	0x280
	.byte	0x14
	.long	0x17d5
	.byte	0
	.uleb128 0x13
	.long	0xa95
	.byte	0
	.uleb128 0x5
	.byte	0x12
	.byte	0x52
	.byte	0xb
	.long	0x235b
	.uleb128 0x5
	.byte	0x12
	.byte	0x53
	.byte	0xb
	.long	0x234f
	.uleb128 0x5
	.byte	0x12
	.byte	0x54
	.byte	0xb
	.long	0xcd8
	.uleb128 0x5
	.byte	0x12
	.byte	0x5c
	.byte	0xb
	.long	0x236d
	.uleb128 0x5
	.byte	0x12
	.byte	0x65
	.byte	0xb
	.long	0x2388
	.uleb128 0x5
	.byte	0x12
	.byte	0x68
	.byte	0xb
	.long	0x23a3
	.uleb128 0x5
	.byte	0x12
	.byte	0x69
	.byte	0xb
	.long	0x23b9
	.uleb128 0x28
	.long	.LASF70
	.long	0xb9e
	.uleb128 0x24
	.long	.LASF59
	.long	0xd3e
	.uleb128 0x2e
	.long	.LASF401
	.long	0x597
	.byte	0
	.uleb128 0x2f
	.long	.LASF71
	.byte	0x13
	.byte	0x8d
	.byte	0x21
	.long	0xb82
	.uleb128 0x30
	.long	.LASF73
	.byte	0x2
	.byte	0x3d
	.byte	0x12
	.long	.LASF402
	.long	0xb9e
	.uleb128 0x31
	.long	.LASF377
	.byte	0x2
	.byte	0x4a
	.byte	0x19
	.long	0xa95
	.byte	0
	.uleb128 0x32
	.long	.LASF75
	.byte	0x5
	.value	0x120
	.byte	0xb
	.long	0xc5c
	.uleb128 0x3
	.long	.LASF60
	.byte	0x5
	.value	0x122
	.byte	0x41
	.uleb128 0x4
	.byte	0x5
	.value	0x122
	.byte	0x41
	.long	0xbd4
	.uleb128 0x5
	.byte	0x3
	.byte	0xfb
	.byte	0xb
	.long	0x1746
	.uleb128 0x6
	.byte	0x3
	.value	0x104
	.byte	0xb
	.long	0x1762
	.uleb128 0x6
	.byte	0x3
	.value	0x105
	.byte	0xb
	.long	0x178a
	.uleb128 0x1e
	.long	.LASF76
	.byte	0x14
	.byte	0x23
	.byte	0xb
	.uleb128 0x5
	.byte	0xd
	.byte	0xc8
	.byte	0xb
	.long	0x1cec
	.uleb128 0x5
	.byte	0xd
	.byte	0xd8
	.byte	0xb
	.long	0x1f7c
	.uleb128 0x5
	.byte	0xd
	.byte	0xe3
	.byte	0xb
	.long	0x1f98
	.uleb128 0x5
	.byte	0xd
	.byte	0xe4
	.byte	0xb
	.long	0x1fae
	.uleb128 0x5
	.byte	0xd
	.byte	0xe5
	.byte	0xb
	.long	0x1fce
	.uleb128 0x5
	.byte	0xd
	.byte	0xe7
	.byte	0xb
	.long	0x1fee
	.uleb128 0x5
	.byte	0xd
	.byte	0xe8
	.byte	0xb
	.long	0x2009
	.uleb128 0x33
	.string	"div"
	.byte	0xd
	.byte	0xd5
	.byte	0x3
	.long	.LASF403
	.long	0x1cec
	.uleb128 0xc
	.long	0x1783
	.uleb128 0xc
	.long	0x1783
	.byte	0
	.byte	0
	.uleb128 0x34
	.byte	0x20
	.byte	0x3
	.long	.LASF77
	.uleb128 0x34
	.byte	0x10
	.byte	0x4
	.long	.LASF78
	.uleb128 0x34
	.byte	0x4
	.byte	0x4
	.long	.LASF79
	.uleb128 0x34
	.byte	0x8
	.byte	0x4
	.long	.LASF80
	.uleb128 0x34
	.byte	0x10
	.byte	0x4
	.long	.LASF81
	.uleb128 0x2f
	.long	.LASF24
	.byte	0x15
	.byte	0xd1
	.byte	0x17
	.long	0xc8b
	.uleb128 0x34
	.byte	0x8
	.byte	0x7
	.long	.LASF82
	.uleb128 0x35
	.long	.LASF404
	.byte	0x18
	.byte	0x16
	.byte	0
	.long	0xccf
	.uleb128 0x36
	.long	.LASF83
	.byte	0x16
	.byte	0
	.long	0xccf
	.byte	0
	.uleb128 0x36
	.long	.LASF84
	.byte	0x16
	.byte	0
	.long	0xccf
	.byte	0x4
	.uleb128 0x36
	.long	.LASF85
	.byte	0x16
	.byte	0
	.long	0xcd6
	.byte	0x8
	.uleb128 0x36
	.long	.LASF86
	.byte	0x16
	.byte	0
	.long	0xcd6
	.byte	0x10
	.byte	0
	.uleb128 0x34
	.byte	0x4
	.byte	0x7
	.long	.LASF87
	.uleb128 0x37
	.byte	0x8
	.uleb128 0x2f
	.long	.LASF88
	.byte	0x17
	.byte	0x14
	.byte	0x17
	.long	0xccf
	.uleb128 0x38
	.byte	0x8
	.byte	0x18
	.byte	0xe
	.byte	0x1
	.long	.LASF299
	.long	0xd2e
	.uleb128 0x39
	.byte	0x4
	.byte	0x18
	.byte	0x11
	.byte	0x3
	.long	0xd13
	.uleb128 0x3a
	.long	.LASF89
	.byte	0x18
	.byte	0x12
	.byte	0x13
	.long	0xccf
	.uleb128 0x3a
	.long	.LASF90
	.byte	0x18
	.byte	0x13
	.byte	0xa
	.long	0xd2e
	.byte	0
	.uleb128 0x9
	.long	.LASF92
	.byte	0x18
	.byte	0xf
	.byte	0x7
	.long	0xd4a
	.byte	0
	.uleb128 0x9
	.long	.LASF29
	.byte	0x18
	.byte	0x14
	.byte	0x5
	.long	0xcf1
	.byte	0x4
	.byte	0
	.uleb128 0x3b
	.long	0xd3e
	.long	0xd3e
	.uleb128 0x3c
	.long	0xc8b
	.byte	0x3
	.byte	0
	.uleb128 0x34
	.byte	0x1
	.byte	0x6
	.long	.LASF93
	.uleb128 0x13
	.long	0xd3e
	.uleb128 0x3d
	.byte	0x4
	.byte	0x5
	.string	"int"
	.uleb128 0x2f
	.long	.LASF94
	.byte	0x18
	.byte	0x15
	.byte	0x3
	.long	0xce4
	.uleb128 0x2f
	.long	.LASF95
	.byte	0x19
	.byte	0x6
	.byte	0x15
	.long	0xd51
	.uleb128 0x13
	.long	0xd5d
	.uleb128 0x2f
	.long	.LASF96
	.byte	0x1a
	.byte	0x5
	.byte	0x19
	.long	0xd7a
	.uleb128 0x18
	.long	.LASF97
	.byte	0xd8
	.byte	0x1b
	.byte	0x31
	.byte	0x8
	.long	0xf01
	.uleb128 0x9
	.long	.LASF98
	.byte	0x1b
	.byte	0x33
	.byte	0x7
	.long	0xd4a
	.byte	0
	.uleb128 0x9
	.long	.LASF99
	.byte	0x1b
	.byte	0x36
	.byte	0x9
	.long	0x1259
	.byte	0x8
	.uleb128 0x9
	.long	.LASF100
	.byte	0x1b
	.byte	0x37
	.byte	0x9
	.long	0x1259
	.byte	0x10
	.uleb128 0x9
	.long	.LASF101
	.byte	0x1b
	.byte	0x38
	.byte	0x9
	.long	0x1259
	.byte	0x18
	.uleb128 0x9
	.long	.LASF102
	.byte	0x1b
	.byte	0x39
	.byte	0x9
	.long	0x1259
	.byte	0x20
	.uleb128 0x9
	.long	.LASF103
	.byte	0x1b
	.byte	0x3a
	.byte	0x9
	.long	0x1259
	.byte	0x28
	.uleb128 0x9
	.long	.LASF104
	.byte	0x1b
	.byte	0x3b
	.byte	0x9
	.long	0x1259
	.byte	0x30
	.uleb128 0x9
	.long	.LASF105
	.byte	0x1b
	.byte	0x3c
	.byte	0x9
	.long	0x1259
	.byte	0x38
	.uleb128 0x9
	.long	.LASF106
	.byte	0x1b
	.byte	0x3d
	.byte	0x9
	.long	0x1259
	.byte	0x40
	.uleb128 0x9
	.long	.LASF107
	.byte	0x1b
	.byte	0x40
	.byte	0x9
	.long	0x1259
	.byte	0x48
	.uleb128 0x9
	.long	.LASF108
	.byte	0x1b
	.byte	0x41
	.byte	0x9
	.long	0x1259
	.byte	0x50
	.uleb128 0x9
	.long	.LASF109
	.byte	0x1b
	.byte	0x42
	.byte	0x9
	.long	0x1259
	.byte	0x58
	.uleb128 0x9
	.long	.LASF110
	.byte	0x1b
	.byte	0x44
	.byte	0x16
	.long	0x2065
	.byte	0x60
	.uleb128 0x9
	.long	.LASF111
	.byte	0x1b
	.byte	0x46
	.byte	0x14
	.long	0x206b
	.byte	0x68
	.uleb128 0x9
	.long	.LASF112
	.byte	0x1b
	.byte	0x48
	.byte	0x7
	.long	0xd4a
	.byte	0x70
	.uleb128 0x9
	.long	.LASF113
	.byte	0x1b
	.byte	0x49
	.byte	0x7
	.long	0xd4a
	.byte	0x74
	.uleb128 0x9
	.long	.LASF114
	.byte	0x1b
	.byte	0x4a
	.byte	0xb
	.long	0x192e
	.byte	0x78
	.uleb128 0x9
	.long	.LASF115
	.byte	0x1b
	.byte	0x4d
	.byte	0x12
	.long	0xf0d
	.byte	0x80
	.uleb128 0x9
	.long	.LASF116
	.byte	0x1b
	.byte	0x4e
	.byte	0xf
	.long	0x17f0
	.byte	0x82
	.uleb128 0x9
	.long	.LASF117
	.byte	0x1b
	.byte	0x4f
	.byte	0x8
	.long	0x2071
	.byte	0x83
	.uleb128 0x9
	.long	.LASF118
	.byte	0x1b
	.byte	0x51
	.byte	0xf
	.long	0x2081
	.byte	0x88
	.uleb128 0x9
	.long	.LASF119
	.byte	0x1b
	.byte	0x59
	.byte	0xd
	.long	0x193a
	.byte	0x90
	.uleb128 0x9
	.long	.LASF120
	.byte	0x1b
	.byte	0x5b
	.byte	0x17
	.long	0x208c
	.byte	0x98
	.uleb128 0x9
	.long	.LASF121
	.byte	0x1b
	.byte	0x5c
	.byte	0x19
	.long	0x2097
	.byte	0xa0
	.uleb128 0x9
	.long	.LASF122
	.byte	0x1b
	.byte	0x5d
	.byte	0x14
	.long	0x206b
	.byte	0xa8
	.uleb128 0x9
	.long	.LASF123
	.byte	0x1b
	.byte	0x5e
	.byte	0x9
	.long	0xcd6
	.byte	0xb0
	.uleb128 0x9
	.long	.LASF124
	.byte	0x1b
	.byte	0x5f
	.byte	0xa
	.long	0xc7f
	.byte	0xb8
	.uleb128 0x9
	.long	.LASF125
	.byte	0x1b
	.byte	0x60
	.byte	0x7
	.long	0xd4a
	.byte	0xc0
	.uleb128 0x9
	.long	.LASF126
	.byte	0x1b
	.byte	0x62
	.byte	0x8
	.long	0x209d
	.byte	0xc4
	.byte	0
	.uleb128 0x2f
	.long	.LASF127
	.byte	0x1c
	.byte	0x7
	.byte	0x19
	.long	0xd7a
	.uleb128 0x34
	.byte	0x2
	.byte	0x7
	.long	.LASF128
	.uleb128 0x3e
	.byte	0x8
	.long	0xd45
	.uleb128 0x3f
	.long	.LASF129
	.byte	0x1d
	.value	0x11c
	.byte	0xf
	.long	0xcd8
	.long	0xf31
	.uleb128 0xc
	.long	0xd4a
	.byte	0
	.uleb128 0x3f
	.long	.LASF130
	.byte	0x1d
	.value	0x2d6
	.byte	0xf
	.long	0xcd8
	.long	0xf48
	.uleb128 0xc
	.long	0xf48
	.byte	0
	.uleb128 0x3e
	.byte	0x8
	.long	0xd6e
	.uleb128 0x3f
	.long	.LASF131
	.byte	0x1d
	.value	0x2f3
	.byte	0x11
	.long	0xf6f
	.long	0xf6f
	.uleb128 0xc
	.long	0xf6f
	.uleb128 0xc
	.long	0xd4a
	.uleb128 0xc
	.long	0xf48
	.byte	0
	.uleb128 0x3e
	.byte	0x8
	.long	0xf75
	.uleb128 0x34
	.byte	0x4
	.byte	0x5
	.long	.LASF132
	.uleb128 0x13
	.long	0xf75
	.uleb128 0x3f
	.long	.LASF133
	.byte	0x1d
	.value	0x2e4
	.byte	0xf
	.long	0xcd8
	.long	0xf9d
	.uleb128 0xc
	.long	0xf75
	.uleb128 0xc
	.long	0xf48
	.byte	0
	.uleb128 0x3f
	.long	.LASF134
	.byte	0x1d
	.value	0x2fa
	.byte	0xc
	.long	0xd4a
	.long	0xfb9
	.uleb128 0xc
	.long	0xfb9
	.uleb128 0xc
	.long	0xf48
	.byte	0
	.uleb128 0x3e
	.byte	0x8
	.long	0xf7c
	.uleb128 0x3f
	.long	.LASF135
	.byte	0x1d
	.value	0x23d
	.byte	0xc
	.long	0xd4a
	.long	0xfdb
	.uleb128 0xc
	.long	0xf48
	.uleb128 0xc
	.long	0xd4a
	.byte	0
	.uleb128 0x3f
	.long	.LASF136
	.byte	0x1d
	.value	0x244
	.byte	0xc
	.long	0xd4a
	.long	0xff8
	.uleb128 0xc
	.long	0xf48
	.uleb128 0xc
	.long	0xfb9
	.uleb128 0x40
	.byte	0
	.uleb128 0x22
	.long	.LASF137
	.byte	0x1d
	.value	0x280
	.byte	0xc
	.long	.LASF138
	.long	0xd4a
	.long	0x1019
	.uleb128 0xc
	.long	0xf48
	.uleb128 0xc
	.long	0xfb9
	.uleb128 0x40
	.byte	0
	.uleb128 0x3f
	.long	.LASF139
	.byte	0x1d
	.value	0x2d7
	.byte	0xf
	.long	0xcd8
	.long	0x1030
	.uleb128 0xc
	.long	0xf48
	.byte	0
	.uleb128 0x41
	.long	.LASF293
	.byte	0x1d
	.value	0x2dd
	.byte	0xf
	.long	0xcd8
	.uleb128 0x3f
	.long	.LASF140
	.byte	0x1d
	.value	0x133
	.byte	0xf
	.long	0xc7f
	.long	0x105e
	.uleb128 0xc
	.long	0xf14
	.uleb128 0xc
	.long	0xc7f
	.uleb128 0xc
	.long	0x105e
	.byte	0
	.uleb128 0x3e
	.byte	0x8
	.long	0xd5d
	.uleb128 0x3f
	.long	.LASF141
	.byte	0x1d
	.value	0x128
	.byte	0xf
	.long	0xc7f
	.long	0x108a
	.uleb128 0xc
	.long	0xf6f
	.uleb128 0xc
	.long	0xf14
	.uleb128 0xc
	.long	0xc7f
	.uleb128 0xc
	.long	0x105e
	.byte	0
	.uleb128 0x3f
	.long	.LASF142
	.byte	0x1d
	.value	0x124
	.byte	0xc
	.long	0xd4a
	.long	0x10a1
	.uleb128 0xc
	.long	0x10a1
	.byte	0
	.uleb128 0x3e
	.byte	0x8
	.long	0xd69
	.uleb128 0x3f
	.long	.LASF143
	.byte	0x1d
	.value	0x151
	.byte	0xf
	.long	0xc7f
	.long	0x10cd
	.uleb128 0xc
	.long	0xf6f
	.uleb128 0xc
	.long	0x10cd
	.uleb128 0xc
	.long	0xc7f
	.uleb128 0xc
	.long	0x105e
	.byte	0
	.uleb128 0x3e
	.byte	0x8
	.long	0xf14
	.uleb128 0x3f
	.long	.LASF144
	.byte	0x1d
	.value	0x2e5
	.byte	0xf
	.long	0xcd8
	.long	0x10ef
	.uleb128 0xc
	.long	0xf75
	.uleb128 0xc
	.long	0xf48
	.byte	0
	.uleb128 0x3f
	.long	.LASF145
	.byte	0x1d
	.value	0x2eb
	.byte	0xf
	.long	0xcd8
	.long	0x1106
	.uleb128 0xc
	.long	0xf75
	.byte	0
	.uleb128 0x3f
	.long	.LASF146
	.byte	0x1d
	.value	0x24e
	.byte	0xc
	.long	0xd4a
	.long	0x1128
	.uleb128 0xc
	.long	0xf6f
	.uleb128 0xc
	.long	0xc7f
	.uleb128 0xc
	.long	0xfb9
	.uleb128 0x40
	.byte	0
	.uleb128 0x22
	.long	.LASF147
	.byte	0x1d
	.value	0x287
	.byte	0xc
	.long	.LASF148
	.long	0xd4a
	.long	0x1149
	.uleb128 0xc
	.long	0xfb9
	.uleb128 0xc
	.long	0xfb9
	.uleb128 0x40
	.byte	0
	.uleb128 0x3f
	.long	.LASF149
	.byte	0x1d
	.value	0x302
	.byte	0xf
	.long	0xcd8
	.long	0x1165
	.uleb128 0xc
	.long	0xcd8
	.uleb128 0xc
	.long	0xf48
	.byte	0
	.uleb128 0x3f
	.long	.LASF150
	.byte	0x1d
	.value	0x256
	.byte	0xc
	.long	0xd4a
	.long	0x1186
	.uleb128 0xc
	.long	0xf48
	.uleb128 0xc
	.long	0xfb9
	.uleb128 0xc
	.long	0x1186
	.byte	0
	.uleb128 0x3e
	.byte	0x8
	.long	0xc92
	.uleb128 0x22
	.long	.LASF151
	.byte	0x1d
	.value	0x2b5
	.byte	0xc
	.long	.LASF152
	.long	0xd4a
	.long	0x11b1
	.uleb128 0xc
	.long	0xf48
	.uleb128 0xc
	.long	0xfb9
	.uleb128 0xc
	.long	0x1186
	.byte	0
	.uleb128 0x3f
	.long	.LASF153
	.byte	0x1d
	.value	0x263
	.byte	0xc
	.long	0xd4a
	.long	0x11d7
	.uleb128 0xc
	.long	0xf6f
	.uleb128 0xc
	.long	0xc7f
	.uleb128 0xc
	.long	0xfb9
	.uleb128 0xc
	.long	0x1186
	.byte	0
	.uleb128 0x22
	.long	.LASF154
	.byte	0x1d
	.value	0x2bc
	.byte	0xc
	.long	.LASF155
	.long	0xd4a
	.long	0x11fc
	.uleb128 0xc
	.long	0xfb9
	.uleb128 0xc
	.long	0xfb9
	.uleb128 0xc
	.long	0x1186
	.byte	0
	.uleb128 0x3f
	.long	.LASF156
	.byte	0x1d
	.value	0x25e
	.byte	0xc
	.long	0xd4a
	.long	0x1218
	.uleb128 0xc
	.long	0xfb9
	.uleb128 0xc
	.long	0x1186
	.byte	0
	.uleb128 0x22
	.long	.LASF157
	.byte	0x1d
	.value	0x2b9
	.byte	0xc
	.long	.LASF158
	.long	0xd4a
	.long	0x1238
	.uleb128 0xc
	.long	0xfb9
	.uleb128 0xc
	.long	0x1186
	.byte	0
	.uleb128 0x3f
	.long	.LASF159
	.byte	0x1d
	.value	0x12d
	.byte	0xf
	.long	0xc7f
	.long	0x1259
	.uleb128 0xc
	.long	0x1259
	.uleb128 0xc
	.long	0xf75
	.uleb128 0xc
	.long	0x105e
	.byte	0
	.uleb128 0x3e
	.byte	0x8
	.long	0xd3e
	.uleb128 0x42
	.long	.LASF160
	.byte	0x1d
	.byte	0x61
	.byte	0x11
	.long	0xf6f
	.long	0x127a
	.uleb128 0xc
	.long	0xf6f
	.uleb128 0xc
	.long	0xfb9
	.byte	0
	.uleb128 0x42
	.long	.LASF161
	.byte	0x1d
	.byte	0x6a
	.byte	0xc
	.long	0xd4a
	.long	0x1295
	.uleb128 0xc
	.long	0xfb9
	.uleb128 0xc
	.long	0xfb9
	.byte	0
	.uleb128 0x42
	.long	.LASF162
	.byte	0x1d
	.byte	0x83
	.byte	0xc
	.long	0xd4a
	.long	0x12b0
	.uleb128 0xc
	.long	0xfb9
	.uleb128 0xc
	.long	0xfb9
	.byte	0
	.uleb128 0x42
	.long	.LASF163
	.byte	0x1d
	.byte	0x57
	.byte	0x11
	.long	0xf6f
	.long	0x12cb
	.uleb128 0xc
	.long	0xf6f
	.uleb128 0xc
	.long	0xfb9
	.byte	0
	.uleb128 0x42
	.long	.LASF164
	.byte	0x1d
	.byte	0xbb
	.byte	0xf
	.long	0xc7f
	.long	0x12e6
	.uleb128 0xc
	.long	0xfb9
	.uleb128 0xc
	.long	0xfb9
	.byte	0
	.uleb128 0x3f
	.long	.LASF165
	.byte	0x1d
	.value	0x342
	.byte	0xf
	.long	0xc7f
	.long	0x130c
	.uleb128 0xc
	.long	0xf6f
	.uleb128 0xc
	.long	0xc7f
	.uleb128 0xc
	.long	0xfb9
	.uleb128 0xc
	.long	0x130c
	.byte	0
	.uleb128 0x3e
	.byte	0x8
	.long	0x13ae
	.uleb128 0x43
	.string	"tm"
	.byte	0x38
	.byte	0x1e
	.byte	0x7
	.byte	0x8
	.long	0x13ae
	.uleb128 0x9
	.long	.LASF166
	.byte	0x1e
	.byte	0x9
	.byte	0x7
	.long	0xd4a
	.byte	0
	.uleb128 0x9
	.long	.LASF167
	.byte	0x1e
	.byte	0xa
	.byte	0x7
	.long	0xd4a
	.byte	0x4
	.uleb128 0x9
	.long	.LASF168
	.byte	0x1e
	.byte	0xb
	.byte	0x7
	.long	0xd4a
	.byte	0x8
	.uleb128 0x9
	.long	.LASF169
	.byte	0x1e
	.byte	0xc
	.byte	0x7
	.long	0xd4a
	.byte	0xc
	.uleb128 0x9
	.long	.LASF170
	.byte	0x1e
	.byte	0xd
	.byte	0x7
	.long	0xd4a
	.byte	0x10
	.uleb128 0x9
	.long	.LASF171
	.byte	0x1e
	.byte	0xe
	.byte	0x7
	.long	0xd4a
	.byte	0x14
	.uleb128 0x9
	.long	.LASF172
	.byte	0x1e
	.byte	0xf
	.byte	0x7
	.long	0xd4a
	.byte	0x18
	.uleb128 0x9
	.long	.LASF173
	.byte	0x1e
	.byte	0x10
	.byte	0x7
	.long	0xd4a
	.byte	0x1c
	.uleb128 0x9
	.long	.LASF174
	.byte	0x1e
	.byte	0x11
	.byte	0x7
	.long	0xd4a
	.byte	0x20
	.uleb128 0x9
	.long	.LASF175
	.byte	0x1e
	.byte	0x14
	.byte	0xc
	.long	0x14ef
	.byte	0x28
	.uleb128 0x9
	.long	.LASF176
	.byte	0x1e
	.byte	0x15
	.byte	0xf
	.long	0xf14
	.byte	0x30
	.byte	0
	.uleb128 0x13
	.long	0x1312
	.uleb128 0x42
	.long	.LASF177
	.byte	0x1d
	.byte	0xde
	.byte	0xf
	.long	0xc7f
	.long	0x13c9
	.uleb128 0xc
	.long	0xfb9
	.byte	0
	.uleb128 0x42
	.long	.LASF178
	.byte	0x1d
	.byte	0x65
	.byte	0x11
	.long	0xf6f
	.long	0x13e9
	.uleb128 0xc
	.long	0xf6f
	.uleb128 0xc
	.long	0xfb9
	.uleb128 0xc
	.long	0xc7f
	.byte	0
	.uleb128 0x42
	.long	.LASF179
	.byte	0x1d
	.byte	0x6d
	.byte	0xc
	.long	0xd4a
	.long	0x1409
	.uleb128 0xc
	.long	0xfb9
	.uleb128 0xc
	.long	0xfb9
	.uleb128 0xc
	.long	0xc7f
	.byte	0
	.uleb128 0x42
	.long	.LASF180
	.byte	0x1d
	.byte	0x5c
	.byte	0x11
	.long	0xf6f
	.long	0x1429
	.uleb128 0xc
	.long	0xf6f
	.uleb128 0xc
	.long	0xfb9
	.uleb128 0xc
	.long	0xc7f
	.byte	0
	.uleb128 0x3f
	.long	.LASF181
	.byte	0x1d
	.value	0x157
	.byte	0xf
	.long	0xc7f
	.long	0x144f
	.uleb128 0xc
	.long	0x1259
	.uleb128 0xc
	.long	0x144f
	.uleb128 0xc
	.long	0xc7f
	.uleb128 0xc
	.long	0x105e
	.byte	0
	.uleb128 0x3e
	.byte	0x8
	.long	0xfb9
	.uleb128 0x42
	.long	.LASF182
	.byte	0x1d
	.byte	0xbf
	.byte	0xf
	.long	0xc7f
	.long	0x1470
	.uleb128 0xc
	.long	0xfb9
	.uleb128 0xc
	.long	0xfb9
	.byte	0
	.uleb128 0x3f
	.long	.LASF183
	.byte	0x1d
	.value	0x179
	.byte	0xf
	.long	0xc71
	.long	0x148c
	.uleb128 0xc
	.long	0xfb9
	.uleb128 0xc
	.long	0x148c
	.byte	0
	.uleb128 0x3e
	.byte	0x8
	.long	0xf6f
	.uleb128 0x3f
	.long	.LASF184
	.byte	0x1d
	.value	0x17e
	.byte	0xe
	.long	0xc6a
	.long	0x14ae
	.uleb128 0xc
	.long	0xfb9
	.uleb128 0xc
	.long	0x148c
	.byte	0
	.uleb128 0x42
	.long	.LASF185
	.byte	0x1d
	.byte	0xd9
	.byte	0x11
	.long	0xf6f
	.long	0x14ce
	.uleb128 0xc
	.long	0xf6f
	.uleb128 0xc
	.long	0xfb9
	.uleb128 0xc
	.long	0x148c
	.byte	0
	.uleb128 0x3f
	.long	.LASF186
	.byte	0x1d
	.value	0x1ac
	.byte	0x11
	.long	0x14ef
	.long	0x14ef
	.uleb128 0xc
	.long	0xfb9
	.uleb128 0xc
	.long	0x148c
	.uleb128 0xc
	.long	0xd4a
	.byte	0
	.uleb128 0x34
	.byte	0x8
	.byte	0x5
	.long	.LASF187
	.uleb128 0x3f
	.long	.LASF188
	.byte	0x1d
	.value	0x1b1
	.byte	0x1a
	.long	0xc8b
	.long	0x1517
	.uleb128 0xc
	.long	0xfb9
	.uleb128 0xc
	.long	0x148c
	.uleb128 0xc
	.long	0xd4a
	.byte	0
	.uleb128 0x42
	.long	.LASF189
	.byte	0x1d
	.byte	0x87
	.byte	0xf
	.long	0xc7f
	.long	0x1537
	.uleb128 0xc
	.long	0xf6f
	.uleb128 0xc
	.long	0xfb9
	.uleb128 0xc
	.long	0xc7f
	.byte	0
	.uleb128 0x3f
	.long	.LASF190
	.byte	0x1d
	.value	0x120
	.byte	0xc
	.long	0xd4a
	.long	0x154e
	.uleb128 0xc
	.long	0xcd8
	.byte	0
	.uleb128 0x3f
	.long	.LASF191
	.byte	0x1d
	.value	0x102
	.byte	0xc
	.long	0xd4a
	.long	0x156f
	.uleb128 0xc
	.long	0xfb9
	.uleb128 0xc
	.long	0xfb9
	.uleb128 0xc
	.long	0xc7f
	.byte	0
	.uleb128 0x3f
	.long	.LASF192
	.byte	0x1d
	.value	0x106
	.byte	0x11
	.long	0xf6f
	.long	0x1590
	.uleb128 0xc
	.long	0xf6f
	.uleb128 0xc
	.long	0xfb9
	.uleb128 0xc
	.long	0xc7f
	.byte	0
	.uleb128 0x3f
	.long	.LASF193
	.byte	0x1d
	.value	0x10b
	.byte	0x11
	.long	0xf6f
	.long	0x15b1
	.uleb128 0xc
	.long	0xf6f
	.uleb128 0xc
	.long	0xfb9
	.uleb128 0xc
	.long	0xc7f
	.byte	0
	.uleb128 0x3f
	.long	.LASF194
	.byte	0x1d
	.value	0x10f
	.byte	0x11
	.long	0xf6f
	.long	0x15d2
	.uleb128 0xc
	.long	0xf6f
	.uleb128 0xc
	.long	0xf75
	.uleb128 0xc
	.long	0xc7f
	.byte	0
	.uleb128 0x3f
	.long	.LASF195
	.byte	0x1d
	.value	0x24b
	.byte	0xc
	.long	0xd4a
	.long	0x15ea
	.uleb128 0xc
	.long	0xfb9
	.uleb128 0x40
	.byte	0
	.uleb128 0x22
	.long	.LASF196
	.byte	0x1d
	.value	0x284
	.byte	0xc
	.long	.LASF197
	.long	0xd4a
	.long	0x1606
	.uleb128 0xc
	.long	0xfb9
	.uleb128 0x40
	.byte	0
	.uleb128 0x44
	.long	.LASF198
	.byte	0x1d
	.byte	0xa1
	.byte	0x1d
	.long	.LASF198
	.long	0xfb9
	.long	0x1625
	.uleb128 0xc
	.long	0xfb9
	.uleb128 0xc
	.long	0xf75
	.byte	0
	.uleb128 0x44
	.long	.LASF198
	.byte	0x1d
	.byte	0x9f
	.byte	0x17
	.long	.LASF198
	.long	0xf6f
	.long	0x1644
	.uleb128 0xc
	.long	0xf6f
	.uleb128 0xc
	.long	0xf75
	.byte	0
	.uleb128 0x44
	.long	.LASF199
	.byte	0x1d
	.byte	0xc5
	.byte	0x1d
	.long	.LASF199
	.long	0xfb9
	.long	0x1663
	.uleb128 0xc
	.long	0xfb9
	.uleb128 0xc
	.long	0xfb9
	.byte	0
	.uleb128 0x44
	.long	.LASF199
	.byte	0x1d
	.byte	0xc3
	.byte	0x17
	.long	.LASF199
	.long	0xf6f
	.long	0x1682
	.uleb128 0xc
	.long	0xf6f
	.uleb128 0xc
	.long	0xfb9
	.byte	0
	.uleb128 0x44
	.long	.LASF200
	.byte	0x1d
	.byte	0xab
	.byte	0x1d
	.long	.LASF200
	.long	0xfb9
	.long	0x16a1
	.uleb128 0xc
	.long	0xfb9
	.uleb128 0xc
	.long	0xf75
	.byte	0
	.uleb128 0x44
	.long	.LASF200
	.byte	0x1d
	.byte	0xa9
	.byte	0x17
	.long	.LASF200
	.long	0xf6f
	.long	0x16c0
	.uleb128 0xc
	.long	0xf6f
	.uleb128 0xc
	.long	0xf75
	.byte	0
	.uleb128 0x44
	.long	.LASF201
	.byte	0x1d
	.byte	0xd0
	.byte	0x1d
	.long	.LASF201
	.long	0xfb9
	.long	0x16df
	.uleb128 0xc
	.long	0xfb9
	.uleb128 0xc
	.long	0xfb9
	.byte	0
	.uleb128 0x44
	.long	.LASF201
	.byte	0x1d
	.byte	0xce
	.byte	0x17
	.long	.LASF201
	.long	0xf6f
	.long	0x16fe
	.uleb128 0xc
	.long	0xf6f
	.uleb128 0xc
	.long	0xfb9
	.byte	0
	.uleb128 0x44
	.long	.LASF202
	.byte	0x1d
	.byte	0xf9
	.byte	0x1d
	.long	.LASF202
	.long	0xfb9
	.long	0x1722
	.uleb128 0xc
	.long	0xfb9
	.uleb128 0xc
	.long	0xf75
	.uleb128 0xc
	.long	0xc7f
	.byte	0
	.uleb128 0x44
	.long	.LASF202
	.byte	0x1d
	.byte	0xf7
	.byte	0x17
	.long	.LASF202
	.long	0xf6f
	.long	0x1746
	.uleb128 0xc
	.long	0xf6f
	.uleb128 0xc
	.long	0xf75
	.uleb128 0xc
	.long	0xc7f
	.byte	0
	.uleb128 0x3f
	.long	.LASF203
	.byte	0x1d
	.value	0x180
	.byte	0x14
	.long	0xc78
	.long	0x1762
	.uleb128 0xc
	.long	0xfb9
	.uleb128 0xc
	.long	0x148c
	.byte	0
	.uleb128 0x3f
	.long	.LASF204
	.byte	0x1d
	.value	0x1b9
	.byte	0x16
	.long	0x1783
	.long	0x1783
	.uleb128 0xc
	.long	0xfb9
	.uleb128 0xc
	.long	0x148c
	.uleb128 0xc
	.long	0xd4a
	.byte	0
	.uleb128 0x34
	.byte	0x8
	.byte	0x5
	.long	.LASF205
	.uleb128 0x3f
	.long	.LASF206
	.byte	0x1d
	.value	0x1c0
	.byte	0x1f
	.long	0x17ab
	.long	0x17ab
	.uleb128 0xc
	.long	0xfb9
	.uleb128 0xc
	.long	0x148c
	.uleb128 0xc
	.long	0xd4a
	.byte	0
	.uleb128 0x34
	.byte	0x8
	.byte	0x7
	.long	.LASF207
	.uleb128 0x45
	.long	.LASF405
	.uleb128 0x3e
	.byte	0x8
	.long	0x2a8
	.uleb128 0x3e
	.byte	0x8
	.long	0x471
	.uleb128 0x46
	.byte	0x8
	.long	0x471
	.uleb128 0x47
	.byte	0x8
	.long	0x2a8
	.uleb128 0x46
	.byte	0x8
	.long	0x2a8
	.uleb128 0x34
	.byte	0x1
	.byte	0x2
	.long	.LASF208
	.uleb128 0x3e
	.byte	0x8
	.long	0x4af
	.uleb128 0x34
	.byte	0x1
	.byte	0x8
	.long	.LASF209
	.uleb128 0x34
	.byte	0x10
	.byte	0x7
	.long	.LASF210
	.uleb128 0x34
	.byte	0x1
	.byte	0x6
	.long	.LASF211
	.uleb128 0x34
	.byte	0x2
	.byte	0x5
	.long	.LASF212
	.uleb128 0x34
	.byte	0x10
	.byte	0x5
	.long	.LASF213
	.uleb128 0x34
	.byte	0x2
	.byte	0x10
	.long	.LASF214
	.uleb128 0x34
	.byte	0x4
	.byte	0x10
	.long	.LASF215
	.uleb128 0x3e
	.byte	0x8
	.long	0x557
	.uleb128 0x48
	.long	0x581
	.uleb128 0x7
	.long	.LASF216
	.byte	0x9
	.byte	0x38
	.byte	0xb
	.long	0x1833
	.uleb128 0x27
	.byte	0x9
	.byte	0x3a
	.byte	0x18
	.long	0x58f
	.byte	0
	.uleb128 0x46
	.byte	0x8
	.long	0x5c1
	.uleb128 0x46
	.byte	0x8
	.long	0x5ce
	.uleb128 0x3e
	.byte	0x8
	.long	0x5ce
	.uleb128 0x3e
	.byte	0x8
	.long	0x5c1
	.uleb128 0x46
	.byte	0x8
	.long	0x70d
	.uleb128 0x2f
	.long	.LASF217
	.byte	0x1f
	.byte	0x25
	.byte	0x15
	.long	0x17f0
	.uleb128 0x2f
	.long	.LASF218
	.byte	0x1f
	.byte	0x26
	.byte	0x17
	.long	0x17e2
	.uleb128 0x2f
	.long	.LASF219
	.byte	0x1f
	.byte	0x27
	.byte	0x1a
	.long	0x17f7
	.uleb128 0x2f
	.long	.LASF220
	.byte	0x1f
	.byte	0x28
	.byte	0x1c
	.long	0xf0d
	.uleb128 0x2f
	.long	.LASF221
	.byte	0x1f
	.byte	0x29
	.byte	0x14
	.long	0xd4a
	.uleb128 0x13
	.long	0x1881
	.uleb128 0x2f
	.long	.LASF222
	.byte	0x1f
	.byte	0x2a
	.byte	0x16
	.long	0xccf
	.uleb128 0x2f
	.long	.LASF223
	.byte	0x1f
	.byte	0x2c
	.byte	0x19
	.long	0x14ef
	.uleb128 0x2f
	.long	.LASF224
	.byte	0x1f
	.byte	0x2d
	.byte	0x1b
	.long	0xc8b
	.uleb128 0x2f
	.long	.LASF225
	.byte	0x1f
	.byte	0x34
	.byte	0x12
	.long	0x1851
	.uleb128 0x2f
	.long	.LASF226
	.byte	0x1f
	.byte	0x35
	.byte	0x13
	.long	0x185d
	.uleb128 0x2f
	.long	.LASF227
	.byte	0x1f
	.byte	0x36
	.byte	0x13
	.long	0x1869
	.uleb128 0x2f
	.long	.LASF228
	.byte	0x1f
	.byte	0x37
	.byte	0x14
	.long	0x1875
	.uleb128 0x2f
	.long	.LASF229
	.byte	0x1f
	.byte	0x38
	.byte	0x13
	.long	0x1881
	.uleb128 0x2f
	.long	.LASF230
	.byte	0x1f
	.byte	0x39
	.byte	0x14
	.long	0x1892
	.uleb128 0x2f
	.long	.LASF231
	.byte	0x1f
	.byte	0x3a
	.byte	0x13
	.long	0x189e
	.uleb128 0x2f
	.long	.LASF232
	.byte	0x1f
	.byte	0x3b
	.byte	0x14
	.long	0x18aa
	.uleb128 0x2f
	.long	.LASF233
	.byte	0x1f
	.byte	0x48
	.byte	0x12
	.long	0x14ef
	.uleb128 0x2f
	.long	.LASF234
	.byte	0x1f
	.byte	0x49
	.byte	0x1b
	.long	0xc8b
	.uleb128 0x2f
	.long	.LASF235
	.byte	0x1f
	.byte	0x98
	.byte	0x19
	.long	0x14ef
	.uleb128 0x2f
	.long	.LASF236
	.byte	0x1f
	.byte	0x99
	.byte	0x1b
	.long	0x14ef
	.uleb128 0x2f
	.long	.LASF237
	.byte	0x1f
	.byte	0xa0
	.byte	0x1a
	.long	0x14ef
	.uleb128 0x2f
	.long	.LASF238
	.byte	0x1f
	.byte	0xa2
	.byte	0x1f
	.long	0x14ef
	.uleb128 0x2f
	.long	.LASF239
	.byte	0x20
	.byte	0x18
	.byte	0x12
	.long	0x1851
	.uleb128 0x2f
	.long	.LASF240
	.byte	0x20
	.byte	0x19
	.byte	0x13
	.long	0x1869
	.uleb128 0x2f
	.long	.LASF241
	.byte	0x20
	.byte	0x1a
	.byte	0x13
	.long	0x1881
	.uleb128 0x2f
	.long	.LASF242
	.byte	0x20
	.byte	0x1b
	.byte	0x13
	.long	0x189e
	.uleb128 0x2f
	.long	.LASF243
	.byte	0x21
	.byte	0x18
	.byte	0x13
	.long	0x185d
	.uleb128 0x2f
	.long	.LASF244
	.byte	0x21
	.byte	0x19
	.byte	0x14
	.long	0x1875
	.uleb128 0x2f
	.long	.LASF245
	.byte	0x21
	.byte	0x1a
	.byte	0x14
	.long	0x1892
	.uleb128 0x2f
	.long	.LASF246
	.byte	0x21
	.byte	0x1b
	.byte	0x14
	.long	0x18aa
	.uleb128 0x2f
	.long	.LASF247
	.byte	0x22
	.byte	0x2b
	.byte	0x18
	.long	0x18b6
	.uleb128 0x2f
	.long	.LASF248
	.byte	0x22
	.byte	0x2c
	.byte	0x19
	.long	0x18ce
	.uleb128 0x2f
	.long	.LASF249
	.byte	0x22
	.byte	0x2d
	.byte	0x19
	.long	0x18e6
	.uleb128 0x2f
	.long	.LASF250
	.byte	0x22
	.byte	0x2e
	.byte	0x19
	.long	0x18fe
	.uleb128 0x2f
	.long	.LASF251
	.byte	0x22
	.byte	0x31
	.byte	0x19
	.long	0x18c2
	.uleb128 0x2f
	.long	.LASF252
	.byte	0x22
	.byte	0x32
	.byte	0x1a
	.long	0x18da
	.uleb128 0x2f
	.long	.LASF253
	.byte	0x22
	.byte	0x33
	.byte	0x1a
	.long	0x18f2
	.uleb128 0x2f
	.long	.LASF254
	.byte	0x22
	.byte	0x34
	.byte	0x1a
	.long	0x190a
	.uleb128 0x2f
	.long	.LASF255
	.byte	0x22
	.byte	0x3a
	.byte	0x16
	.long	0x17f0
	.uleb128 0x2f
	.long	.LASF256
	.byte	0x22
	.byte	0x3c
	.byte	0x13
	.long	0x14ef
	.uleb128 0x2f
	.long	.LASF257
	.byte	0x22
	.byte	0x3d
	.byte	0x13
	.long	0x14ef
	.uleb128 0x2f
	.long	.LASF258
	.byte	0x22
	.byte	0x3e
	.byte	0x13
	.long	0x14ef
	.uleb128 0x2f
	.long	.LASF259
	.byte	0x22
	.byte	0x47
	.byte	0x18
	.long	0x17e2
	.uleb128 0x2f
	.long	.LASF260
	.byte	0x22
	.byte	0x49
	.byte	0x1b
	.long	0xc8b
	.uleb128 0x2f
	.long	.LASF261
	.byte	0x22
	.byte	0x4a
	.byte	0x1b
	.long	0xc8b
	.uleb128 0x2f
	.long	.LASF262
	.byte	0x22
	.byte	0x4b
	.byte	0x1b
	.long	0xc8b
	.uleb128 0x2f
	.long	.LASF263
	.byte	0x22
	.byte	0x57
	.byte	0x13
	.long	0x14ef
	.uleb128 0x2f
	.long	.LASF264
	.byte	0x22
	.byte	0x5a
	.byte	0x1b
	.long	0xc8b
	.uleb128 0x2f
	.long	.LASF265
	.byte	0x22
	.byte	0x65
	.byte	0x15
	.long	0x1916
	.uleb128 0x2f
	.long	.LASF266
	.byte	0x22
	.byte	0x66
	.byte	0x16
	.long	0x1922
	.uleb128 0x18
	.long	.LASF267
	.byte	0x60
	.byte	0x23
	.byte	0x33
	.byte	0x8
	.long	0x1bf4
	.uleb128 0x9
	.long	.LASF268
	.byte	0x23
	.byte	0x37
	.byte	0x9
	.long	0x1259
	.byte	0
	.uleb128 0x9
	.long	.LASF269
	.byte	0x23
	.byte	0x38
	.byte	0x9
	.long	0x1259
	.byte	0x8
	.uleb128 0x9
	.long	.LASF270
	.byte	0x23
	.byte	0x3e
	.byte	0x9
	.long	0x1259
	.byte	0x10
	.uleb128 0x9
	.long	.LASF271
	.byte	0x23
	.byte	0x44
	.byte	0x9
	.long	0x1259
	.byte	0x18
	.uleb128 0x9
	.long	.LASF272
	.byte	0x23
	.byte	0x45
	.byte	0x9
	.long	0x1259
	.byte	0x20
	.uleb128 0x9
	.long	.LASF273
	.byte	0x23
	.byte	0x46
	.byte	0x9
	.long	0x1259
	.byte	0x28
	.uleb128 0x9
	.long	.LASF274
	.byte	0x23
	.byte	0x47
	.byte	0x9
	.long	0x1259
	.byte	0x30
	.uleb128 0x9
	.long	.LASF275
	.byte	0x23
	.byte	0x48
	.byte	0x9
	.long	0x1259
	.byte	0x38
	.uleb128 0x9
	.long	.LASF276
	.byte	0x23
	.byte	0x49
	.byte	0x9
	.long	0x1259
	.byte	0x40
	.uleb128 0x9
	.long	.LASF277
	.byte	0x23
	.byte	0x4a
	.byte	0x9
	.long	0x1259
	.byte	0x48
	.uleb128 0x9
	.long	.LASF278
	.byte	0x23
	.byte	0x4b
	.byte	0x8
	.long	0xd3e
	.byte	0x50
	.uleb128 0x9
	.long	.LASF279
	.byte	0x23
	.byte	0x4c
	.byte	0x8
	.long	0xd3e
	.byte	0x51
	.uleb128 0x9
	.long	.LASF280
	.byte	0x23
	.byte	0x4e
	.byte	0x8
	.long	0xd3e
	.byte	0x52
	.uleb128 0x9
	.long	.LASF281
	.byte	0x23
	.byte	0x50
	.byte	0x8
	.long	0xd3e
	.byte	0x53
	.uleb128 0x9
	.long	.LASF282
	.byte	0x23
	.byte	0x52
	.byte	0x8
	.long	0xd3e
	.byte	0x54
	.uleb128 0x9
	.long	.LASF283
	.byte	0x23
	.byte	0x54
	.byte	0x8
	.long	0xd3e
	.byte	0x55
	.uleb128 0x9
	.long	.LASF284
	.byte	0x23
	.byte	0x5b
	.byte	0x8
	.long	0xd3e
	.byte	0x56
	.uleb128 0x9
	.long	.LASF285
	.byte	0x23
	.byte	0x5c
	.byte	0x8
	.long	0xd3e
	.byte	0x57
	.uleb128 0x9
	.long	.LASF286
	.byte	0x23
	.byte	0x5f
	.byte	0x8
	.long	0xd3e
	.byte	0x58
	.uleb128 0x9
	.long	.LASF287
	.byte	0x23
	.byte	0x61
	.byte	0x8
	.long	0xd3e
	.byte	0x59
	.uleb128 0x9
	.long	.LASF288
	.byte	0x23
	.byte	0x63
	.byte	0x8
	.long	0xd3e
	.byte	0x5a
	.uleb128 0x9
	.long	.LASF289
	.byte	0x23
	.byte	0x65
	.byte	0x8
	.long	0xd3e
	.byte	0x5b
	.uleb128 0x9
	.long	.LASF290
	.byte	0x23
	.byte	0x6c
	.byte	0x8
	.long	0xd3e
	.byte	0x5c
	.uleb128 0x9
	.long	.LASF291
	.byte	0x23
	.byte	0x6d
	.byte	0x8
	.long	0xd3e
	.byte	0x5d
	.byte	0
	.uleb128 0x42
	.long	.LASF292
	.byte	0x23
	.byte	0x7a
	.byte	0xe
	.long	0x1259
	.long	0x1c0f
	.uleb128 0xc
	.long	0xd4a
	.uleb128 0xc
	.long	0xf14
	.byte	0
	.uleb128 0x49
	.long	.LASF294
	.byte	0x23
	.byte	0x7d
	.byte	0x16
	.long	0x1c1b
	.uleb128 0x3e
	.byte	0x8
	.long	0x1aae
	.uleb128 0x18
	.long	.LASF295
	.byte	0x10
	.byte	0x24
	.byte	0x8
	.byte	0x8
	.long	0x1c49
	.uleb128 0x9
	.long	.LASF296
	.byte	0x24
	.byte	0xa
	.byte	0xc
	.long	0x1946
	.byte	0
	.uleb128 0x9
	.long	.LASF297
	.byte	0x24
	.byte	0xb
	.byte	0x11
	.long	0x1952
	.byte	0x8
	.byte	0
	.uleb128 0x2f
	.long	.LASF298
	.byte	0x25
	.byte	0x20
	.byte	0xd
	.long	0xd4a
	.uleb128 0x3e
	.byte	0x8
	.long	0x1c5b
	.uleb128 0x4a
	.uleb128 0x38
	.byte	0x8
	.byte	0x26
	.byte	0x3b
	.byte	0x3
	.long	.LASF300
	.long	0x1c84
	.uleb128 0x9
	.long	.LASF301
	.byte	0x26
	.byte	0x3c
	.byte	0x9
	.long	0xd4a
	.byte	0
	.uleb128 0x4b
	.string	"rem"
	.byte	0x26
	.byte	0x3d
	.byte	0x9
	.long	0xd4a
	.byte	0x4
	.byte	0
	.uleb128 0x2f
	.long	.LASF302
	.byte	0x26
	.byte	0x3e
	.byte	0x5
	.long	0x1c5c
	.uleb128 0x38
	.byte	0x10
	.byte	0x26
	.byte	0x43
	.byte	0x3
	.long	.LASF303
	.long	0x1cb8
	.uleb128 0x9
	.long	.LASF301
	.byte	0x26
	.byte	0x44
	.byte	0xe
	.long	0x14ef
	.byte	0
	.uleb128 0x4b
	.string	"rem"
	.byte	0x26
	.byte	0x45
	.byte	0xe
	.long	0x14ef
	.byte	0x8
	.byte	0
	.uleb128 0x2f
	.long	.LASF304
	.byte	0x26
	.byte	0x46
	.byte	0x5
	.long	0x1c90
	.uleb128 0x38
	.byte	0x10
	.byte	0x26
	.byte	0x4d
	.byte	0x3
	.long	.LASF305
	.long	0x1cec
	.uleb128 0x9
	.long	.LASF301
	.byte	0x26
	.byte	0x4e
	.byte	0x13
	.long	0x1783
	.byte	0
	.uleb128 0x4b
	.string	"rem"
	.byte	0x26
	.byte	0x4f
	.byte	0x13
	.long	0x1783
	.byte	0x8
	.byte	0
	.uleb128 0x2f
	.long	.LASF306
	.byte	0x26
	.byte	0x50
	.byte	0x5
	.long	0x1cc4
	.uleb128 0x15
	.long	.LASF307
	.byte	0x26
	.value	0x328
	.byte	0xf
	.long	0x1d05
	.uleb128 0x3e
	.byte	0x8
	.long	0x1d0b
	.uleb128 0x4c
	.long	0xd4a
	.long	0x1d1f
	.uleb128 0xc
	.long	0x1c55
	.uleb128 0xc
	.long	0x1c55
	.byte	0
	.uleb128 0x3f
	.long	.LASF308
	.byte	0x26
	.value	0x253
	.byte	0xc
	.long	0xd4a
	.long	0x1d36
	.uleb128 0xc
	.long	0x1d36
	.byte	0
	.uleb128 0x3e
	.byte	0x8
	.long	0x1d3c
	.uleb128 0x4d
	.uleb128 0x22
	.long	.LASF309
	.byte	0x26
	.value	0x258
	.byte	0x12
	.long	.LASF309
	.long	0xd4a
	.long	0x1d58
	.uleb128 0xc
	.long	0x1d36
	.byte	0
	.uleb128 0x42
	.long	.LASF310
	.byte	0x26
	.byte	0x65
	.byte	0xf
	.long	0xc71
	.long	0x1d6e
	.uleb128 0xc
	.long	0xf14
	.byte	0
	.uleb128 0x42
	.long	.LASF311
	.byte	0x26
	.byte	0x68
	.byte	0xc
	.long	0xd4a
	.long	0x1d84
	.uleb128 0xc
	.long	0xf14
	.byte	0
	.uleb128 0x42
	.long	.LASF312
	.byte	0x26
	.byte	0x6b
	.byte	0x11
	.long	0x14ef
	.long	0x1d9a
	.uleb128 0xc
	.long	0xf14
	.byte	0
	.uleb128 0x3f
	.long	.LASF313
	.byte	0x26
	.value	0x334
	.byte	0xe
	.long	0xcd6
	.long	0x1dc5
	.uleb128 0xc
	.long	0x1c55
	.uleb128 0xc
	.long	0x1c55
	.uleb128 0xc
	.long	0xc7f
	.uleb128 0xc
	.long	0xc7f
	.uleb128 0xc
	.long	0x1cf8
	.byte	0
	.uleb128 0x4e
	.string	"div"
	.byte	0x26
	.value	0x354
	.byte	0xe
	.long	0x1c84
	.long	0x1de1
	.uleb128 0xc
	.long	0xd4a
	.uleb128 0xc
	.long	0xd4a
	.byte	0
	.uleb128 0x3f
	.long	.LASF314
	.byte	0x26
	.value	0x27a
	.byte	0xe
	.long	0x1259
	.long	0x1df8
	.uleb128 0xc
	.long	0xf14
	.byte	0
	.uleb128 0x3f
	.long	.LASF315
	.byte	0x26
	.value	0x356
	.byte	0xf
	.long	0x1cb8
	.long	0x1e14
	.uleb128 0xc
	.long	0x14ef
	.uleb128 0xc
	.long	0x14ef
	.byte	0
	.uleb128 0x3f
	.long	.LASF316
	.byte	0x26
	.value	0x39a
	.byte	0xc
	.long	0xd4a
	.long	0x1e30
	.uleb128 0xc
	.long	0xf14
	.uleb128 0xc
	.long	0xc7f
	.byte	0
	.uleb128 0x3f
	.long	.LASF317
	.byte	0x26
	.value	0x3a5
	.byte	0xf
	.long	0xc7f
	.long	0x1e51
	.uleb128 0xc
	.long	0xf6f
	.uleb128 0xc
	.long	0xf14
	.uleb128 0xc
	.long	0xc7f
	.byte	0
	.uleb128 0x3f
	.long	.LASF318
	.byte	0x26
	.value	0x39d
	.byte	0xc
	.long	0xd4a
	.long	0x1e72
	.uleb128 0xc
	.long	0xf6f
	.uleb128 0xc
	.long	0xf14
	.uleb128 0xc
	.long	0xc7f
	.byte	0
	.uleb128 0x4f
	.long	.LASF321
	.byte	0x26
	.value	0x33e
	.byte	0xd
	.long	0x1e94
	.uleb128 0xc
	.long	0xcd6
	.uleb128 0xc
	.long	0xc7f
	.uleb128 0xc
	.long	0xc7f
	.uleb128 0xc
	.long	0x1cf8
	.byte	0
	.uleb128 0x50
	.long	.LASF319
	.byte	0x26
	.value	0x26f
	.byte	0xd
	.long	0x1ea7
	.uleb128 0xc
	.long	0xd4a
	.byte	0
	.uleb128 0x41
	.long	.LASF320
	.byte	0x26
	.value	0x1c5
	.byte	0xc
	.long	0xd4a
	.uleb128 0x4f
	.long	.LASF322
	.byte	0x26
	.value	0x1c7
	.byte	0xd
	.long	0x1ec7
	.uleb128 0xc
	.long	0xccf
	.byte	0
	.uleb128 0x42
	.long	.LASF323
	.byte	0x26
	.byte	0x75
	.byte	0xf
	.long	0xc71
	.long	0x1ee2
	.uleb128 0xc
	.long	0xf14
	.uleb128 0xc
	.long	0x1ee2
	.byte	0
	.uleb128 0x3e
	.byte	0x8
	.long	0x1259
	.uleb128 0x42
	.long	.LASF324
	.byte	0x26
	.byte	0xb0
	.byte	0x11
	.long	0x14ef
	.long	0x1f08
	.uleb128 0xc
	.long	0xf14
	.uleb128 0xc
	.long	0x1ee2
	.uleb128 0xc
	.long	0xd4a
	.byte	0
	.uleb128 0x42
	.long	.LASF325
	.byte	0x26
	.byte	0xb4
	.byte	0x1a
	.long	0xc8b
	.long	0x1f28
	.uleb128 0xc
	.long	0xf14
	.uleb128 0xc
	.long	0x1ee2
	.uleb128 0xc
	.long	0xd4a
	.byte	0
	.uleb128 0x3f
	.long	.LASF326
	.byte	0x26
	.value	0x310
	.byte	0xc
	.long	0xd4a
	.long	0x1f3f
	.uleb128 0xc
	.long	0xf14
	.byte	0
	.uleb128 0x3f
	.long	.LASF327
	.byte	0x26
	.value	0x3a8
	.byte	0xf
	.long	0xc7f
	.long	0x1f60
	.uleb128 0xc
	.long	0x1259
	.uleb128 0xc
	.long	0xfb9
	.uleb128 0xc
	.long	0xc7f
	.byte	0
	.uleb128 0x3f
	.long	.LASF328
	.byte	0x26
	.value	0x3a1
	.byte	0xc
	.long	0xd4a
	.long	0x1f7c
	.uleb128 0xc
	.long	0x1259
	.uleb128 0xc
	.long	0xf75
	.byte	0
	.uleb128 0x3f
	.long	.LASF329
	.byte	0x26
	.value	0x35a
	.byte	0x1e
	.long	0x1cec
	.long	0x1f98
	.uleb128 0xc
	.long	0x1783
	.uleb128 0xc
	.long	0x1783
	.byte	0
	.uleb128 0x42
	.long	.LASF330
	.byte	0x26
	.byte	0x70
	.byte	0x24
	.long	0x1783
	.long	0x1fae
	.uleb128 0xc
	.long	0xf14
	.byte	0
	.uleb128 0x42
	.long	.LASF331
	.byte	0x26
	.byte	0xc8
	.byte	0x16
	.long	0x1783
	.long	0x1fce
	.uleb128 0xc
	.long	0xf14
	.uleb128 0xc
	.long	0x1ee2
	.uleb128 0xc
	.long	0xd4a
	.byte	0
	.uleb128 0x42
	.long	.LASF332
	.byte	0x26
	.byte	0xcd
	.byte	0x1f
	.long	0x17ab
	.long	0x1fee
	.uleb128 0xc
	.long	0xf14
	.uleb128 0xc
	.long	0x1ee2
	.uleb128 0xc
	.long	0xd4a
	.byte	0
	.uleb128 0x42
	.long	.LASF333
	.byte	0x26
	.byte	0x7b
	.byte	0xe
	.long	0xc6a
	.long	0x2009
	.uleb128 0xc
	.long	0xf14
	.uleb128 0xc
	.long	0x1ee2
	.byte	0
	.uleb128 0x42
	.long	.LASF334
	.byte	0x26
	.byte	0x7e
	.byte	0x14
	.long	0xc78
	.long	0x2024
	.uleb128 0xc
	.long	0xf14
	.uleb128 0xc
	.long	0x1ee2
	.byte	0
	.uleb128 0x18
	.long	.LASF335
	.byte	0x10
	.byte	0x27
	.byte	0xa
	.byte	0x10
	.long	0x204c
	.uleb128 0x9
	.long	.LASF336
	.byte	0x27
	.byte	0xc
	.byte	0xb
	.long	0x192e
	.byte	0
	.uleb128 0x9
	.long	.LASF337
	.byte	0x27
	.byte	0xd
	.byte	0xf
	.long	0xd51
	.byte	0x8
	.byte	0
	.uleb128 0x2f
	.long	.LASF338
	.byte	0x27
	.byte	0xe
	.byte	0x3
	.long	0x2024
	.uleb128 0x51
	.long	.LASF406
	.byte	0x1b
	.byte	0x2b
	.byte	0xe
	.uleb128 0x52
	.long	.LASF339
	.uleb128 0x3e
	.byte	0x8
	.long	0x2060
	.uleb128 0x3e
	.byte	0x8
	.long	0xd7a
	.uleb128 0x3b
	.long	0xd3e
	.long	0x2081
	.uleb128 0x3c
	.long	0xc8b
	.byte	0
	.byte	0
	.uleb128 0x3e
	.byte	0x8
	.long	0x2058
	.uleb128 0x52
	.long	.LASF340
	.uleb128 0x3e
	.byte	0x8
	.long	0x2087
	.uleb128 0x52
	.long	.LASF341
	.uleb128 0x3e
	.byte	0x8
	.long	0x2092
	.uleb128 0x3b
	.long	0xd3e
	.long	0x20ad
	.uleb128 0x3c
	.long	0xc8b
	.byte	0x13
	.byte	0
	.uleb128 0x2f
	.long	.LASF342
	.byte	0x28
	.byte	0x54
	.byte	0x12
	.long	0x204c
	.uleb128 0x13
	.long	0x20ad
	.uleb128 0x3e
	.byte	0x8
	.long	0xf01
	.uleb128 0x4f
	.long	.LASF343
	.byte	0x28
	.value	0x2f5
	.byte	0xd
	.long	0x20d7
	.uleb128 0xc
	.long	0x20be
	.byte	0
	.uleb128 0x42
	.long	.LASF344
	.byte	0x28
	.byte	0xd5
	.byte	0xc
	.long	0xd4a
	.long	0x20ed
	.uleb128 0xc
	.long	0x20be
	.byte	0
	.uleb128 0x3f
	.long	.LASF345
	.byte	0x28
	.value	0x2f7
	.byte	0xc
	.long	0xd4a
	.long	0x2104
	.uleb128 0xc
	.long	0x20be
	.byte	0
	.uleb128 0x3f
	.long	.LASF346
	.byte	0x28
	.value	0x2f9
	.byte	0xc
	.long	0xd4a
	.long	0x211b
	.uleb128 0xc
	.long	0x20be
	.byte	0
	.uleb128 0x42
	.long	.LASF347
	.byte	0x28
	.byte	0xda
	.byte	0xc
	.long	0xd4a
	.long	0x2131
	.uleb128 0xc
	.long	0x20be
	.byte	0
	.uleb128 0x3f
	.long	.LASF348
	.byte	0x28
	.value	0x1e5
	.byte	0xc
	.long	0xd4a
	.long	0x2148
	.uleb128 0xc
	.long	0x20be
	.byte	0
	.uleb128 0x3f
	.long	.LASF349
	.byte	0x28
	.value	0x2db
	.byte	0xc
	.long	0xd4a
	.long	0x2164
	.uleb128 0xc
	.long	0x20be
	.uleb128 0xc
	.long	0x2164
	.byte	0
	.uleb128 0x3e
	.byte	0x8
	.long	0x20ad
	.uleb128 0x3f
	.long	.LASF350
	.byte	0x28
	.value	0x234
	.byte	0xe
	.long	0x1259
	.long	0x218b
	.uleb128 0xc
	.long	0x1259
	.uleb128 0xc
	.long	0xd4a
	.uleb128 0xc
	.long	0x20be
	.byte	0
	.uleb128 0x42
	.long	.LASF351
	.byte	0x28
	.byte	0xf6
	.byte	0xe
	.long	0x20be
	.long	0x21a6
	.uleb128 0xc
	.long	0xf14
	.uleb128 0xc
	.long	0xf14
	.byte	0
	.uleb128 0x3f
	.long	.LASF352
	.byte	0x28
	.value	0x286
	.byte	0xf
	.long	0xc7f
	.long	0x21cc
	.uleb128 0xc
	.long	0xcd6
	.uleb128 0xc
	.long	0xc7f
	.uleb128 0xc
	.long	0xc7f
	.uleb128 0xc
	.long	0x20be
	.byte	0
	.uleb128 0x42
	.long	.LASF353
	.byte	0x28
	.byte	0xfc
	.byte	0xe
	.long	0x20be
	.long	0x21ec
	.uleb128 0xc
	.long	0xf14
	.uleb128 0xc
	.long	0xf14
	.uleb128 0xc
	.long	0x20be
	.byte	0
	.uleb128 0x3f
	.long	.LASF354
	.byte	0x28
	.value	0x2ac
	.byte	0xc
	.long	0xd4a
	.long	0x220d
	.uleb128 0xc
	.long	0x20be
	.uleb128 0xc
	.long	0x14ef
	.uleb128 0xc
	.long	0xd4a
	.byte	0
	.uleb128 0x3f
	.long	.LASF355
	.byte	0x28
	.value	0x2e0
	.byte	0xc
	.long	0xd4a
	.long	0x2229
	.uleb128 0xc
	.long	0x20be
	.uleb128 0xc
	.long	0x2229
	.byte	0
	.uleb128 0x3e
	.byte	0x8
	.long	0x20b9
	.uleb128 0x3f
	.long	.LASF356
	.byte	0x28
	.value	0x2b1
	.byte	0x11
	.long	0x14ef
	.long	0x2246
	.uleb128 0xc
	.long	0x20be
	.byte	0
	.uleb128 0x3f
	.long	.LASF357
	.byte	0x28
	.value	0x1e6
	.byte	0xc
	.long	0xd4a
	.long	0x225d
	.uleb128 0xc
	.long	0x20be
	.byte	0
	.uleb128 0x41
	.long	.LASF358
	.byte	0x28
	.value	0x1ec
	.byte	0xc
	.long	0xd4a
	.uleb128 0x4f
	.long	.LASF359
	.byte	0x28
	.value	0x307
	.byte	0xd
	.long	0x227d
	.uleb128 0xc
	.long	0xf14
	.byte	0
	.uleb128 0x42
	.long	.LASF360
	.byte	0x28
	.byte	0x92
	.byte	0xc
	.long	0xd4a
	.long	0x2293
	.uleb128 0xc
	.long	0xf14
	.byte	0
	.uleb128 0x42
	.long	.LASF361
	.byte	0x28
	.byte	0x94
	.byte	0xc
	.long	0xd4a
	.long	0x22ae
	.uleb128 0xc
	.long	0xf14
	.uleb128 0xc
	.long	0xf14
	.byte	0
	.uleb128 0x4f
	.long	.LASF362
	.byte	0x28
	.value	0x2b6
	.byte	0xd
	.long	0x22c1
	.uleb128 0xc
	.long	0x20be
	.byte	0
	.uleb128 0x4f
	.long	.LASF363
	.byte	0x28
	.value	0x130
	.byte	0xd
	.long	0x22d9
	.uleb128 0xc
	.long	0x20be
	.uleb128 0xc
	.long	0x1259
	.byte	0
	.uleb128 0x3f
	.long	.LASF364
	.byte	0x28
	.value	0x134
	.byte	0xc
	.long	0xd4a
	.long	0x22ff
	.uleb128 0xc
	.long	0x20be
	.uleb128 0xc
	.long	0x1259
	.uleb128 0xc
	.long	0xd4a
	.uleb128 0xc
	.long	0xc7f
	.byte	0
	.uleb128 0x49
	.long	.LASF365
	.byte	0x28
	.byte	0xad
	.byte	0xe
	.long	0x20be
	.uleb128 0x42
	.long	.LASF366
	.byte	0x28
	.byte	0xbb
	.byte	0xe
	.long	0x1259
	.long	0x2321
	.uleb128 0xc
	.long	0x1259
	.byte	0
	.uleb128 0x3f
	.long	.LASF367
	.byte	0x28
	.value	0x27f
	.byte	0xc
	.long	0xd4a
	.long	0x233d
	.uleb128 0xc
	.long	0xd4a
	.uleb128 0xc
	.long	0x20be
	.byte	0
	.uleb128 0x3e
	.byte	0x8
	.long	0xa95
	.uleb128 0x46
	.byte	0x8
	.long	0xb44
	.uleb128 0x46
	.byte	0x8
	.long	0xa95
	.uleb128 0x2f
	.long	.LASF368
	.byte	0x29
	.byte	0x26
	.byte	0x1b
	.long	0xc8b
	.uleb128 0x2f
	.long	.LASF369
	.byte	0x2a
	.byte	0x30
	.byte	0x1a
	.long	0x2367
	.uleb128 0x3e
	.byte	0x8
	.long	0x188d
	.uleb128 0x42
	.long	.LASF370
	.byte	0x29
	.byte	0x9f
	.byte	0xc
	.long	0xd4a
	.long	0x2388
	.uleb128 0xc
	.long	0xcd8
	.uleb128 0xc
	.long	0x234f
	.byte	0
	.uleb128 0x42
	.long	.LASF371
	.byte	0x2a
	.byte	0x37
	.byte	0xf
	.long	0xcd8
	.long	0x23a3
	.uleb128 0xc
	.long	0xcd8
	.uleb128 0xc
	.long	0x235b
	.byte	0
	.uleb128 0x42
	.long	.LASF372
	.byte	0x2a
	.byte	0x34
	.byte	0x12
	.long	0x235b
	.long	0x23b9
	.uleb128 0xc
	.long	0xf14
	.byte	0
	.uleb128 0x42
	.long	.LASF373
	.byte	0x29
	.byte	0x9b
	.byte	0x11
	.long	0x234f
	.long	0x23cf
	.uleb128 0xc
	.long	0xf14
	.byte	0
	.uleb128 0x53
	.long	0xbba
	.uleb128 0x9
	.byte	0x3
	.quad	_ZStL8__ioinit
	.uleb128 0x27
	.byte	0x1
	.byte	0x4
	.byte	0x11
	.long	0x2d
	.uleb128 0x54
	.long	.LASF407
	.long	0xcd6
	.uleb128 0x55
	.long	.LASF408
	.quad	.LFB2076
	.quad	.LFE2076-.LFB2076
	.uleb128 0x1
	.byte	0x9c
	.uleb128 0x56
	.long	.LASF409
	.quad	.LFB2075
	.quad	.LFE2075-.LFB2075
	.uleb128 0x1
	.byte	0x9c
	.long	0x2440
	.uleb128 0x57
	.long	.LASF374
	.byte	0x1
	.byte	0x65
	.byte	0x1
	.long	0xd4a
	.uleb128 0x2
	.byte	0x91
	.sleb128 -20
	.uleb128 0x57
	.long	.LASF375
	.byte	0x1
	.byte	0x65
	.byte	0x1
	.long	0xd4a
	.uleb128 0x2
	.byte	0x91
	.sleb128 -24
	.byte	0
	.uleb128 0x58
	.long	.LASF376
	.byte	0x1
	.byte	0x5d
	.byte	0x5
	.long	0xd4a
	.quad	.LFB1576
	.quad	.LFE1576-.LFB1576
	.uleb128 0x1
	.byte	0x9c
	.long	0x2490
	.uleb128 0x59
	.long	.LASF378
	.byte	0x1
	.byte	0x5f
	.byte	0xc
	.long	0xc71
	.uleb128 0x2
	.byte	0x91
	.sleb128 -24
	.uleb128 0x59
	.long	.LASF379
	.byte	0x1
	.byte	0x60
	.byte	0xc
	.long	0xc71
	.uleb128 0x2
	.byte	0x91
	.sleb128 -32
	.uleb128 0x59
	.long	.LASF380
	.byte	0x1
	.byte	0x61
	.byte	0xc
	.long	0xc71
	.uleb128 0x2
	.byte	0x91
	.sleb128 -40
	.byte	0
	.uleb128 0x5a
	.long	.LASF381
	.byte	0x1
	.byte	0x40
	.byte	0x8
	.long	.LASF383
	.long	0xc71
	.quad	.LFB1575
	.quad	.LFE1575-.LFB1575
	.uleb128 0x1
	.byte	0x9c
	.long	0x2514
	.uleb128 0x57
	.long	.LASF384
	.byte	0x1
	.byte	0x40
	.byte	0x26
	.long	0xccf
	.uleb128 0x3
	.byte	0x91
	.sleb128 -84
	.uleb128 0x59
	.long	.LASF385
	.byte	0x1
	.byte	0x45
	.byte	0x14
	.long	0x1c21
	.uleb128 0x2
	.byte	0x91
	.sleb128 -64
	.uleb128 0x59
	.long	.LASF386
	.byte	0x1
	.byte	0x46
	.byte	0x14
	.long	0x1c21
	.uleb128 0x3
	.byte	0x91
	.sleb128 -80
	.uleb128 0x59
	.long	.LASF387
	.byte	0x1
	.byte	0x57
	.byte	0x13
	.long	0xc8b
	.uleb128 0x2
	.byte	0x91
	.sleb128 -48
	.uleb128 0x5b
	.quad	.LBB4
	.quad	.LBE4-.LBB4
	.uleb128 0x5c
	.string	"i"
	.byte	0x1
	.byte	0x48
	.byte	0x11
	.long	0xc7f
	.uleb128 0x2
	.byte	0x91
	.sleb128 -40
	.byte	0
	.byte	0
	.uleb128 0x5a
	.long	.LASF388
	.byte	0x1
	.byte	0x24
	.byte	0x8
	.long	.LASF389
	.long	0xc71
	.quad	.LFB1574
	.quad	.LFE1574-.LFB1574
	.uleb128 0x1
	.byte	0x9c
	.long	0x2597
	.uleb128 0x57
	.long	.LASF384
	.byte	0x1
	.byte	0x24
	.byte	0x27
	.long	0xccf
	.uleb128 0x3
	.byte	0x91
	.sleb128 -68
	.uleb128 0x59
	.long	.LASF385
	.byte	0x1
	.byte	0x29
	.byte	0x14
	.long	0x1c21
	.uleb128 0x2
	.byte	0x91
	.sleb128 -48
	.uleb128 0x59
	.long	.LASF386
	.byte	0x1
	.byte	0x2a
	.byte	0x14
	.long	0x1c21
	.uleb128 0x2
	.byte	0x91
	.sleb128 -64
	.uleb128 0x59
	.long	.LASF387
	.byte	0x1
	.byte	0x3a
	.byte	0x13
	.long	0xc8b
	.uleb128 0x2
	.byte	0x91
	.sleb128 -32
	.uleb128 0x5b
	.quad	.LBB3
	.quad	.LBE3-.LBB3
	.uleb128 0x5c
	.string	"i"
	.byte	0x1
	.byte	0x2c
	.byte	0x11
	.long	0xc7f
	.uleb128 0x2
	.byte	0x91
	.sleb128 -24
	.byte	0
	.byte	0
	.uleb128 0x5d
	.long	.LASF410
	.byte	0x1
	.byte	0x22
	.byte	0x6
	.long	.LASF411
	.quad	.LFB1573
	.quad	.LFE1573-.LFB1573
	.uleb128 0x1
	.byte	0x9c
	.uleb128 0x5e
	.long	.LASF390
	.byte	0x1
	.byte	0x8
	.byte	0x8
	.long	.LASF391
	.long	0xc71
	.quad	.LFB1572
	.quad	.LFE1572-.LFB1572
	.uleb128 0x1
	.byte	0x9c
	.uleb128 0x57
	.long	.LASF384
	.byte	0x1
	.byte	0x8
	.byte	0x28
	.long	0xccf
	.uleb128 0x3
	.byte	0x91
	.sleb128 -68
	.uleb128 0x59
	.long	.LASF385
	.byte	0x1
	.byte	0xd
	.byte	0x14
	.long	0x1c21
	.uleb128 0x2
	.byte	0x91
	.sleb128 -48
	.uleb128 0x59
	.long	.LASF386
	.byte	0x1
	.byte	0xe
	.byte	0x14
	.long	0x1c21
	.uleb128 0x2
	.byte	0x91
	.sleb128 -64
	.uleb128 0x59
	.long	.LASF387
	.byte	0x1
	.byte	0x1e
	.byte	0x13
	.long	0xc8b
	.uleb128 0x2
	.byte	0x91
	.sleb128 -32
	.uleb128 0x5b
	.quad	.LBB2
	.quad	.LBE2-.LBB2
	.uleb128 0x5c
	.string	"i"
	.byte	0x1
	.byte	0x10
	.byte	0x11
	.long	0xc7f
	.uleb128 0x2
	.byte	0x91
	.sleb128 -24
	.byte	0
	.byte	0
	.byte	0
	.section	.debug_abbrev,"",@progbits
.Ldebug_abbrev0:
	.uleb128 0x1
	.uleb128 0x11
	.byte	0x1
	.uleb128 0x25
	.uleb128 0xe
	.uleb128 0x13
	.uleb128 0xb
	.uleb128 0x3
	.uleb128 0xe
	.uleb128 0x1b
	.uleb128 0xe
	.uleb128 0x11
	.uleb128 0x1
	.uleb128 0x12
	.uleb128 0x7
	.uleb128 0x10
	.uleb128 0x17
	.byte	0
	.byte	0
	.uleb128 0x2
	.uleb128 0x39
	.byte	0x1
	.uleb128 0x3
	.uleb128 0x8
	.uleb128 0x3a
	.uleb128 0xb
	.uleb128 0x3b
	.uleb128 0xb
	.uleb128 0x1
	.uleb128 0x13
	.byte	0
	.byte	0
	.uleb128 0x3
	.uleb128 0x39
	.byte	0
	.uleb128 0x3
	.uleb128 0xe
	.uleb128 0x3a
	.uleb128 0xb
	.uleb128 0x3b
	.uleb128 0x5
	.uleb128 0x39
	.uleb128 0xb
	.uleb128 0x89
	.uleb128 0x19
	.byte	0
	.byte	0
	.uleb128 0x4
	.uleb128 0x3a
	.byte	0
	.uleb128 0x3a
	.uleb128 0xb
	.uleb128 0x3b
	.uleb128 0x5
	.uleb128 0x39
	.uleb128 0xb
	.uleb128 0x18
	.uleb128 0x13
	.byte	0
	.byte	0
	.uleb128 0x5
	.uleb128 0x8
	.byte	0
	.uleb128 0x3a
	.uleb128 0xb
	.uleb128 0x3b
	.uleb128 0xb
	.uleb128 0x39
	.uleb128 0xb
	.uleb128 0x18
	.uleb128 0x13
	.byte	0
	.byte	0
	.uleb128 0x6
	.uleb128 0x8
	.byte	0
	.uleb128 0x3a
	.uleb128 0xb
	.uleb128 0x3b
	.uleb128 0x5
	.uleb128 0x39
	.uleb128 0xb
	.uleb128 0x18
	.uleb128 0x13
	.byte	0
	.byte	0
	.uleb128 0x7
	.uleb128 0x39
	.byte	0x1
	.uleb128 0x3
	.uleb128 0xe
	.uleb128 0x3a
	.uleb128 0xb
	.uleb128 0x3b
	.uleb128 0xb
	.uleb128 0x39
	.uleb128 0xb
	.uleb128 0x1
	.uleb128 0x13
	.byte	0
	.byte	0
	.uleb128 0x8
	.uleb128 0x2
	.byte	0x1
	.uleb128 0x3
	.uleb128 0xe
	.uleb128 0xb
	.uleb128 0xb
	.uleb128 0x3a
	.uleb128 0xb
	.uleb128 0x3b
	.uleb128 0xb
	.uleb128 0x39
	.uleb128 0xb
	.uleb128 0x1
	.uleb128 0x13
	.byte	0
	.byte	0
	.uleb128 0x9
	.uleb128 0xd
	.byte	0
	.uleb128 0x3
	.uleb128 0xe
	.uleb128 0x3a
	.uleb128 0xb
	.uleb128 0x3b
	.uleb128 0xb
	.uleb128 0x39
	.uleb128 0xb
	.uleb128 0x49
	.uleb128 0x13
	.uleb128 0x38
	.uleb128 0xb
	.byte	0
	.byte	0
	.uleb128 0xa
	.uleb128 0x2e
	.byte	0x1
	.uleb128 0x3f
	.uleb128 0x19
	.uleb128 0x3
	.uleb128 0xe
	.uleb128 0x3a
	.uleb128 0xb
	.uleb128 0x3b
	.uleb128 0xb
	.uleb128 0x39
	.uleb128 0xb
	.uleb128 0x6e
	.uleb128 0xe
	.uleb128 0x3c
	.uleb128 0x19
	.uleb128 0x63
	.uleb128 0x19
	.uleb128 0x64
	.uleb128 0x13
	.uleb128 0x1
	.uleb128 0x13
	.byte	0
	.byte	0
	.uleb128 0xb
	.uleb128 0x5
	.byte	0
	.uleb128 0x49
	.uleb128 0x13
	.uleb128 0x34
	.uleb128 0x19
	.byte	0
	.byte	0
	.uleb128 0xc
	.uleb128 0x5
	.byte	0
	.uleb128 0x49
	.uleb128 0x13
	.byte	0
	.byte	0
	.uleb128 0xd
	.uleb128 0x2e
	.byte	0x1
	.uleb128 0x3f
	.uleb128 0x19
	.uleb128 0x3
	.uleb128 0xe
	.uleb128 0x3a
	.uleb128 0xb
	.uleb128 0x3b
	.uleb128 0xb
	.uleb128 0x39
	.uleb128 0xb
	.uleb128 0x6e
	.uleb128 0xe
	.uleb128 0x3c
	.uleb128 0x19
	.uleb128 0x64
	.uleb128 0x13
	.uleb128 0x1
	.uleb128 0x13
	.byte	0
	.byte	0
	.uleb128 0xe
	.uleb128 0x2e
	.byte	0x1
	.uleb128 0x3f
	.uleb128 0x19
	.uleb128 0x3
	.uleb128 0xe
	.uleb128 0x3a
	.uleb128 0xb
	.uleb128 0x3b
	.uleb128 0xb
	.uleb128 0x39
	.uleb128 0xb
	.uleb128 0x6e
	.uleb128 0xe
	.uleb128 0x49
	.uleb128 0x13
	.uleb128 0x3c
	.uleb128 0x19
	.uleb128 0x64
	.uleb128 0x13
	.uleb128 0x1
	.uleb128 0x13
	.byte	0
	.byte	0
	.uleb128 0xf
	.uleb128 0x2e
	.byte	0x1
	.uleb128 0x3f
	.uleb128 0x19
	.uleb128 0x3
	.uleb128 0xe
	.uleb128 0x3a
	.uleb128 0xb
	.uleb128 0x3b
	.uleb128 0xb
	.uleb128 0x39
	.uleb128 0xb
	.uleb128 0x6e
	.uleb128 0xe
	.uleb128 0x32
	.uleb128 0xb
	.uleb128 0x3c
	.uleb128 0x19
	.uleb128 0x64
	.uleb128 0x13
	.uleb128 0x1
	.uleb128 0x13
	.byte	0
	.byte	0
	.uleb128 0x10
	.uleb128 0x2e
	.byte	0x1
	.uleb128 0x3f
	.uleb128 0x19
	.uleb128 0x3
	.uleb128 0xe
	.uleb128 0x3a
	.uleb128 0xb
	.uleb128 0x3b
	.uleb128 0xb
	.uleb128 0x39
	.uleb128 0xb
	.uleb128 0x6e
	.uleb128 0xe
	.uleb128 0x49
	.uleb128 0x13
	.uleb128 0x32
	.uleb128 0xb
	.uleb128 0x3c
	.uleb128 0x19
	.uleb128 0x64
	.uleb128 0x13
	.uleb128 0x1
	.uleb128 0x13
	.byte	0
	.byte	0
	.uleb128 0x11
	.uleb128 0x2e
	.byte	0x1
	.uleb128 0x3f
	.uleb128 0x19
	.uleb128 0x3
	.uleb128 0xe
	.uleb128 0x3a
	.uleb128 0xb
	.uleb128 0x3b
	.uleb128 0xb
	.uleb128 0x39
	.uleb128 0xb
	.uleb128 0x6e
	.uleb128 0xe
	.uleb128 0x49
	.uleb128 0x13
	.uleb128 0x32
	.uleb128 0xb
	.uleb128 0x3c
	.uleb128 0x19
	.uleb128 0x63
	.uleb128 0x19
	.uleb128 0x64
	.uleb128 0x13
	.uleb128 0x1
	.uleb128 0x13
	.byte	0
	.byte	0
	.uleb128 0x12
	.uleb128 0x2e
	.byte	0x1
	.uleb128 0x3f
	.uleb128 0x19
	.uleb128 0x3
	.uleb128 0xe
	.uleb128 0x3a
	.uleb128 0xb
	.uleb128 0x3b
	.uleb128 0xb
	.uleb128 0x39
	.uleb128 0xb
	.uleb128 0x6e
	.uleb128 0xe
	.uleb128 0x49
	.uleb128 0x13
	.uleb128 0x32
	.uleb128 0xb
	.uleb128 0x3c
	.uleb128 0x19
	.uleb128 0x64
	.uleb128 0x13
	.byte	0
	.byte	0
	.uleb128 0x13
	.uleb128 0x26
	.byte	0
	.uleb128 0x49
	.uleb128 0x13
	.byte	0
	.byte	0
	.uleb128 0x14
	.uleb128 0x2e
	.byte	0x1
	.uleb128 0x3f
	.uleb128 0x19
	.uleb128 0x3
	.uleb128 0xe
	.uleb128 0x3a
	.uleb128 0xb
	.uleb128 0x3b
	.uleb128 0xb
	.uleb128 0x39
	.uleb128 0xb
	.uleb128 0x6e
	.uleb128 0xe
	.uleb128 0x87
	.uleb128 0x19
	.uleb128 0x3c
	.uleb128 0x19
	.uleb128 0x1
	.uleb128 0x13
	.byte	0
	.byte	0
	.uleb128 0x15
	.uleb128 0x16
	.byte	0
	.uleb128 0x3
	.uleb128 0xe
	.uleb128 0x3a
	.uleb128 0xb
	.uleb128 0x3b
	.uleb128 0x5
	.uleb128 0x39
	.uleb128 0xb
	.uleb128 0x49
	.uleb128 0x13
	.byte	0
	.byte	0
	.uleb128 0x16
	.uleb128 0x2
	.byte	0
	.uleb128 0x3
	.uleb128 0xe
	.uleb128 0x3c
	.uleb128 0x19
	.byte	0
	.byte	0
	.uleb128 0x17
	.uleb128 0x39
	.byte	0
	.uleb128 0x3
	.uleb128 0xe
	.uleb128 0x3a
	.uleb128 0xb
	.uleb128 0x3b
	.uleb128 0x5
	.uleb128 0x39
	.uleb128 0xb
	.byte	0
	.byte	0
	.uleb128 0x18
	.uleb128 0x13
	.byte	0x1
	.uleb128 0x3
	.uleb128 0xe
	.uleb128 0xb
	.uleb128 0xb
	.uleb128 0x3a
	.uleb128 0xb
	.uleb128 0x3b
	.uleb128 0xb
	.uleb128 0x39
	.uleb128 0xb
	.uleb128 0x1
	.uleb128 0x13
	.byte	0
	.byte	0
	.uleb128 0x19
	.uleb128 0x4
	.byte	0x1
	.uleb128 0x3e
	.uleb128 0xb
	.uleb128 0xb
	.uleb128 0xb
	.uleb128 0x49
	.uleb128 0x13
	.uleb128 0x3a
	.uleb128 0xb
	.uleb128 0x3b
	.uleb128 0xb
	.uleb128 0x39
	.uleb128 0xb
	.uleb128 0x1
	.uleb128 0x13
	.byte	0
	.byte	0
	.uleb128 0x1a
	.uleb128 0x28
	.byte	0
	.uleb128 0x3
	.uleb128 0xe
	.uleb128 0x1c
	.uleb128 0xb
	.byte	0
	.byte	0
	.uleb128 0x1b
	.uleb128 0x2f
	.byte	0
	.uleb128 0x3
	.uleb128 0x8
	.uleb128 0x49
	.uleb128 0x13
	.byte	0
	.byte	0
	.uleb128 0x1c
	.uleb128 0x2e
	.byte	0x1
	.uleb128 0x3f
	.uleb128 0x19
	.uleb128 0x3
	.uleb128 0xe
	.uleb128 0x3a
	.uleb128 0xb
	.uleb128 0x3b
	.uleb128 0xb
	.uleb128 0x39
	.uleb128 0xb
	.uleb128 0x6e
	.uleb128 0xe
	.uleb128 0x3c
	.uleb128 0x19
	.uleb128 0x63
	.uleb128 0x19
	.uleb128 0x8b
	.uleb128 0xb
	.uleb128 0x64
	.uleb128 0x13
	.byte	0
	.byte	0
	.uleb128 0x1d
	.uleb128 0x34
	.byte	0
	.uleb128 0x3
	.uleb128 0xe
	.uleb128 0x3a
	.uleb128 0xb
	.uleb128 0x3b
	.uleb128 0xb
	.uleb128 0x39
	.uleb128 0xb
	.uleb128 0x49
	.uleb128 0x13
	.uleb128 0x3c
	.uleb128 0x19
	.uleb128 0x1c
	.uleb128 0xa
	.uleb128 0x6c
	.uleb128 0x19
	.byte	0
	.byte	0
	.uleb128 0x1e
	.uleb128 0x39
	.byte	0
	.uleb128 0x3
	.uleb128 0xe
	.uleb128 0x3a
	.uleb128 0xb
	.uleb128 0x3b
	.uleb128 0xb
	.uleb128 0x39
	.uleb128 0xb
	.byte	0
	.byte	0
	.uleb128 0x1f
	.uleb128 0x13
	.byte	0x1
	.uleb128 0x3
	.uleb128 0xe
	.uleb128 0xb
	.uleb128 0xb
	.uleb128 0x3a
	.uleb128 0xb
	.uleb128 0x3b
	.uleb128 0x5
	.uleb128 0x39
	.uleb128 0xb
	.uleb128 0x1
	.uleb128 0x13
	.byte	0
	.byte	0
	.uleb128 0x20
	.uleb128 0x2e
	.byte	0x1
	.uleb128 0x3f
	.uleb128 0x19
	.uleb128 0x3
	.uleb128 0xe
	.uleb128 0x3a
	.uleb128 0xb
	.uleb128 0x3b
	.uleb128 0x5
	.uleb128 0x39
	.uleb128 0xb
	.uleb128 0x6e
	.uleb128 0xe
	.uleb128 0x3c
	.uleb128 0x19
	.uleb128 0x1
	.uleb128 0x13
	.byte	0
	.byte	0
	.uleb128 0x21
	.uleb128 0x2e
	.byte	0x1
	.uleb128 0x3f
	.uleb128 0x19
	.uleb128 0x3
	.uleb128 0x8
	.uleb128 0x3a
	.uleb128 0xb
	.uleb128 0x3b
	.uleb128 0x5
	.uleb128 0x39
	.uleb128 0xb
	.uleb128 0x6e
	.uleb128 0xe
	.uleb128 0x49
	.uleb128 0x13
	.uleb128 0x3c
	.uleb128 0x19
	.uleb128 0x1
	.uleb128 0x13
	.byte	0
	.byte	0
	.uleb128 0x22
	.uleb128 0x2e
	.byte	0x1
	.uleb128 0x3f
	.uleb128 0x19
	.uleb128 0x3
	.uleb128 0xe
	.uleb128 0x3a
	.uleb128 0xb
	.uleb128 0x3b
	.uleb128 0x5
	.uleb128 0x39
	.uleb128 0xb
	.uleb128 0x6e
	.uleb128 0xe
	.uleb128 0x49
	.uleb128 0x13
	.uleb128 0x3c
	.uleb128 0x19
	.uleb128 0x1
	.uleb128 0x13
	.byte	0
	.byte	0
	.uleb128 0x23
	.uleb128 0x2e
	.byte	0
	.uleb128 0x3f
	.uleb128 0x19
	.uleb128 0x3
	.uleb128 0x8
	.uleb128 0x3a
	.uleb128 0xb
	.uleb128 0x3b
	.uleb128 0x5
	.uleb128 0x39
	.uleb128 0xb
	.uleb128 0x6e
	.uleb128 0xe
	.uleb128 0x49
	.uleb128 0x13
	.uleb128 0x3c
	.uleb128 0x19
	.byte	0
	.byte	0
	.uleb128 0x24
	.uleb128 0x2f
	.byte	0
	.uleb128 0x3
	.uleb128 0xe
	.uleb128 0x49
	.uleb128 0x13
	.byte	0
	.byte	0
	.uleb128 0x25
	.uleb128 0x39
	.byte	0x1
	.uleb128 0x3
	.uleb128 0xe
	.uleb128 0x3a
	.uleb128 0xb
	.uleb128 0x3b
	.uleb128 0x5
	.uleb128 0x39
	.uleb128 0xb
	.uleb128 0x89
	.uleb128 0x19
	.uleb128 0x1
	.uleb128 0x13
	.byte	0
	.byte	0
	.uleb128 0x26
	.uleb128 0x39
	.byte	0
	.uleb128 0x3
	.uleb128 0x8
	.uleb128 0x3a
	.uleb128 0xb
	.uleb128 0x3b
	.uleb128 0xb
	.uleb128 0x39
	.uleb128 0xb
	.uleb128 0x89
	.uleb128 0x19
	.byte	0
	.byte	0
	.uleb128 0x27
	.uleb128 0x3a
	.byte	0
	.uleb128 0x3a
	.uleb128 0xb
	.uleb128 0x3b
	.uleb128 0xb
	.uleb128 0x39
	.uleb128 0xb
	.uleb128 0x18
	.uleb128 0x13
	.byte	0
	.byte	0
	.uleb128 0x28
	.uleb128 0x2
	.byte	0x1
	.uleb128 0x3
	.uleb128 0xe
	.uleb128 0x3c
	.uleb128 0x19
	.uleb128 0x1
	.uleb128 0x13
	.byte	0
	.byte	0
	.uleb128 0x29
	.uleb128 0x2
	.byte	0x1
	.uleb128 0x3
	.uleb128 0xe
	.uleb128 0xb
	.uleb128 0xb
	.uleb128 0x3a
	.uleb128 0xb
	.uleb128 0x3b
	.uleb128 0x5
	.uleb128 0x39
	.uleb128 0xb
	.uleb128 0x32
	.uleb128 0xb
	.uleb128 0x1
	.uleb128 0x13
	.byte	0
	.byte	0
	.uleb128 0x2a
	.uleb128 0x2e
	.byte	0x1
	.uleb128 0x3f
	.uleb128 0x19
	.uleb128 0x3
	.uleb128 0xe
	.uleb128 0x3a
	.uleb128 0xb
	.uleb128 0x3b
	.uleb128 0x5
	.uleb128 0x39
	.uleb128 0xb
	.uleb128 0x6e
	.uleb128 0xe
	.uleb128 0x32
	.uleb128 0xb
	.uleb128 0x3c
	.uleb128 0x19
	.uleb128 0x64
	.uleb128 0x13
	.uleb128 0x1
	.uleb128 0x13
	.byte	0
	.byte	0
	.uleb128 0x2b
	.uleb128 0x2e
	.byte	0x1
	.uleb128 0x3f
	.uleb128 0x19
	.uleb128 0x3
	.uleb128 0xe
	.uleb128 0x3a
	.uleb128 0xb
	.uleb128 0x3b
	.uleb128 0x5
	.uleb128 0x39
	.uleb128 0xb
	.uleb128 0x6e
	.uleb128 0xe
	.uleb128 0x32
	.uleb128 0xb
	.uleb128 0x3c
	.uleb128 0x19
	.uleb128 0x8b
	.uleb128 0xb
	.uleb128 0x64
	.uleb128 0x13
	.uleb128 0x1
	.uleb128 0x13
	.byte	0
	.byte	0
	.uleb128 0x2c
	.uleb128 0x2e
	.byte	0x1
	.uleb128 0x3f
	.uleb128 0x19
	.uleb128 0x3
	.uleb128 0xe
	.uleb128 0x3a
	.uleb128 0xb
	.uleb128 0x3b
	.uleb128 0x5
	.uleb128 0x39
	.uleb128 0xb
	.uleb128 0x6e
	.uleb128 0xe
	.uleb128 0x49
	.uleb128 0x13
	.uleb128 0x32
	.uleb128 0xb
	.uleb128 0x3c
	.uleb128 0x19
	.uleb128 0x8b
	.uleb128 0xb
	.uleb128 0x64
	.uleb128 0x13
	.uleb128 0x1
	.uleb128 0x13
	.byte	0
	.byte	0
	.uleb128 0x2d
	.uleb128 0xd
	.byte	0
	.uleb128 0x3
	.uleb128 0xe
	.uleb128 0x3a
	.uleb128 0xb
	.uleb128 0x3b
	.uleb128 0x5
	.uleb128 0x39
	.uleb128 0xb
	.uleb128 0x49
	.uleb128 0x13
	.uleb128 0x3f
	.uleb128 0x19
	.uleb128 0x3c
	.uleb128 0x19
	.byte	0
	.byte	0
	.uleb128 0x2e
	.uleb128 0x2f
	.byte	0
	.uleb128 0x3
	.uleb128 0xe
	.uleb128 0x49
	.uleb128 0x13
	.uleb128 0x1e
	.uleb128 0x19
	.byte	0
	.byte	0
	.uleb128 0x2f
	.uleb128 0x16
	.byte	0
	.uleb128 0x3
	.uleb128 0xe
	.uleb128 0x3a
	.uleb128 0xb
	.uleb128 0x3b
	.uleb128 0xb
	.uleb128 0x39
	.uleb128 0xb
	.uleb128 0x49
	.uleb128 0x13
	.byte	0
	.byte	0
	.uleb128 0x30
	.uleb128 0x34
	.byte	0
	.uleb128 0x3
	.uleb128 0xe
	.uleb128 0x3a
	.uleb128 0xb
	.uleb128 0x3b
	.uleb128 0xb
	.uleb128 0x39
	.uleb128 0xb
	.uleb128 0x6e
	.uleb128 0xe
	.uleb128 0x49
	.uleb128 0x13
	.uleb128 0x3f
	.uleb128 0x19
	.uleb128 0x3c
	.uleb128 0x19
	.byte	0
	.byte	0
	.uleb128 0x31
	.uleb128 0x34
	.byte	0
	.uleb128 0x3
	.uleb128 0xe
	.uleb128 0x3a
	.uleb128 0xb
	.uleb128 0x3b
	.uleb128 0xb
	.uleb128 0x39
	.uleb128 0xb
	.uleb128 0x49
	.uleb128 0x13
	.uleb128 0x3c
	.uleb128 0x19
	.byte	0
	.byte	0
	.uleb128 0x32
	.uleb128 0x39
	.byte	0x1
	.uleb128 0x3
	.uleb128 0xe
	.uleb128 0x3a
	.uleb128 0xb
	.uleb128 0x3b
	.uleb128 0x5
	.uleb128 0x39
	.uleb128 0xb
	.uleb128 0x1
	.uleb128 0x13
	.byte	0
	.byte	0
	.uleb128 0x33
	.uleb128 0x2e
	.byte	0x1
	.uleb128 0x3f
	.uleb128 0x19
	.uleb128 0x3
	.uleb128 0x8
	.uleb128 0x3a
	.uleb128 0xb
	.uleb128 0x3b
	.uleb128 0xb
	.uleb128 0x39
	.uleb128 0xb
	.uleb128 0x6e
	.uleb128 0xe
	.uleb128 0x49
	.uleb128 0x13
	.uleb128 0x3c
	.uleb128 0x19
	.byte	0
	.byte	0
	.uleb128 0x34
	.uleb128 0x24
	.byte	0
	.uleb128 0xb
	.uleb128 0xb
	.uleb128 0x3e
	.uleb128 0xb
	.uleb128 0x3
	.uleb128 0xe
	.byte	0
	.byte	0
	.uleb128 0x35
	.uleb128 0x13
	.byte	0x1
	.uleb128 0x3
	.uleb128 0xe
	.uleb128 0xb
	.uleb128 0xb
	.uleb128 0x3a
	.uleb128 0xb
	.uleb128 0x3b
	.uleb128 0xb
	.uleb128 0x1
	.uleb128 0x13
	.byte	0
	.byte	0
	.uleb128 0x36
	.uleb128 0xd
	.byte	0
	.uleb128 0x3
	.uleb128 0xe
	.uleb128 0x3a
	.uleb128 0xb
	.uleb128 0x3b
	.uleb128 0xb
	.uleb128 0x49
	.uleb128 0x13
	.uleb128 0x38
	.uleb128 0xb
	.byte	0
	.byte	0
	.uleb128 0x37
	.uleb128 0xf
	.byte	0
	.uleb128 0xb
	.uleb128 0xb
	.byte	0
	.byte	0
	.uleb128 0x38
	.uleb128 0x13
	.byte	0x1
	.uleb128 0xb
	.uleb128 0xb
	.uleb128 0x3a
	.uleb128 0xb
	.uleb128 0x3b
	.uleb128 0xb
	.uleb128 0x39
	.uleb128 0xb
	.uleb128 0x6e
	.uleb128 0xe
	.uleb128 0x1
	.uleb128 0x13
	.byte	0
	.byte	0
	.uleb128 0x39
	.uleb128 0x17
	.byte	0x1
	.uleb128 0xb
	.uleb128 0xb
	.uleb128 0x3a
	.uleb128 0xb
	.uleb128 0x3b
	.uleb128 0xb
	.uleb128 0x39
	.uleb128 0xb
	.uleb128 0x1
	.uleb128 0x13
	.byte	0
	.byte	0
	.uleb128 0x3a
	.uleb128 0xd
	.byte	0
	.uleb128 0x3
	.uleb128 0xe
	.uleb128 0x3a
	.uleb128 0xb
	.uleb128 0x3b
	.uleb128 0xb
	.uleb128 0x39
	.uleb128 0xb
	.uleb128 0x49
	.uleb128 0x13
	.byte	0
	.byte	0
	.uleb128 0x3b
	.uleb128 0x1
	.byte	0x1
	.uleb128 0x49
	.uleb128 0x13
	.uleb128 0x1
	.uleb128 0x13
	.byte	0
	.byte	0
	.uleb128 0x3c
	.uleb128 0x21
	.byte	0
	.uleb128 0x49
	.uleb128 0x13
	.uleb128 0x2f
	.uleb128 0xb
	.byte	0
	.byte	0
	.uleb128 0x3d
	.uleb128 0x24
	.byte	0
	.uleb128 0xb
	.uleb128 0xb
	.uleb128 0x3e
	.uleb128 0xb
	.uleb128 0x3
	.uleb128 0x8
	.byte	0
	.byte	0
	.uleb128 0x3e
	.uleb128 0xf
	.byte	0
	.uleb128 0xb
	.uleb128 0xb
	.uleb128 0x49
	.uleb128 0x13
	.byte	0
	.byte	0
	.uleb128 0x3f
	.uleb128 0x2e
	.byte	0x1
	.uleb128 0x3f
	.uleb128 0x19
	.uleb128 0x3
	.uleb128 0xe
	.uleb128 0x3a
	.uleb128 0xb
	.uleb128 0x3b
	.uleb128 0x5
	.uleb128 0x39
	.uleb128 0xb
	.uleb128 0x49
	.uleb128 0x13
	.uleb128 0x3c
	.uleb128 0x19
	.uleb128 0x1
	.uleb128 0x13
	.byte	0
	.byte	0
	.uleb128 0x40
	.uleb128 0x18
	.byte	0
	.byte	0
	.byte	0
	.uleb128 0x41
	.uleb128 0x2e
	.byte	0
	.uleb128 0x3f
	.uleb128 0x19
	.uleb128 0x3
	.uleb128 0xe
	.uleb128 0x3a
	.uleb128 0xb
	.uleb128 0x3b
	.uleb128 0x5
	.uleb128 0x39
	.uleb128 0xb
	.uleb128 0x49
	.uleb128 0x13
	.uleb128 0x3c
	.uleb128 0x19
	.byte	0
	.byte	0
	.uleb128 0x42
	.uleb128 0x2e
	.byte	0x1
	.uleb128 0x3f
	.uleb128 0x19
	.uleb128 0x3
	.uleb128 0xe
	.uleb128 0x3a
	.uleb128 0xb
	.uleb128 0x3b
	.uleb128 0xb
	.uleb128 0x39
	.uleb128 0xb
	.uleb128 0x49
	.uleb128 0x13
	.uleb128 0x3c
	.uleb128 0x19
	.uleb128 0x1
	.uleb128 0x13
	.byte	0
	.byte	0
	.uleb128 0x43
	.uleb128 0x13
	.byte	0x1
	.uleb128 0x3
	.uleb128 0x8
	.uleb128 0xb
	.uleb128 0xb
	.uleb128 0x3a
	.uleb128 0xb
	.uleb128 0x3b
	.uleb128 0xb
	.uleb128 0x39
	.uleb128 0xb
	.uleb128 0x1
	.uleb128 0x13
	.byte	0
	.byte	0
	.uleb128 0x44
	.uleb128 0x2e
	.byte	0x1
	.uleb128 0x3f
	.uleb128 0x19
	.uleb128 0x3
	.uleb128 0xe
	.uleb128 0x3a
	.uleb128 0xb
	.uleb128 0x3b
	.uleb128 0xb
	.uleb128 0x39
	.uleb128 0xb
	.uleb128 0x6e
	.uleb128 0xe
	.uleb128 0x49
	.uleb128 0x13
	.uleb128 0x3c
	.uleb128 0x19
	.uleb128 0x1
	.uleb128 0x13
	.byte	0
	.byte	0
	.uleb128 0x45
	.uleb128 0x3b
	.byte	0
	.uleb128 0x3
	.uleb128 0xe
	.byte	0
	.byte	0
	.uleb128 0x46
	.uleb128 0x10
	.byte	0
	.uleb128 0xb
	.uleb128 0xb
	.uleb128 0x49
	.uleb128 0x13
	.byte	0
	.byte	0
	.uleb128 0x47
	.uleb128 0x42
	.byte	0
	.uleb128 0xb
	.uleb128 0xb
	.uleb128 0x49
	.uleb128 0x13
	.byte	0
	.byte	0
	.uleb128 0x48
	.uleb128 0x34
	.byte	0
	.uleb128 0x47
	.uleb128 0x13
	.byte	0
	.byte	0
	.uleb128 0x49
	.uleb128 0x2e
	.byte	0
	.uleb128 0x3f
	.uleb128 0x19
	.uleb128 0x3
	.uleb128 0xe
	.uleb128 0x3a
	.uleb128 0xb
	.uleb128 0x3b
	.uleb128 0xb
	.uleb128 0x39
	.uleb128 0xb
	.uleb128 0x49
	.uleb128 0x13
	.uleb128 0x3c
	.uleb128 0x19
	.byte	0
	.byte	0
	.uleb128 0x4a
	.uleb128 0x26
	.byte	0
	.byte	0
	.byte	0
	.uleb128 0x4b
	.uleb128 0xd
	.byte	0
	.uleb128 0x3
	.uleb128 0x8
	.uleb128 0x3a
	.uleb128 0xb
	.uleb128 0x3b
	.uleb128 0xb
	.uleb128 0x39
	.uleb128 0xb
	.uleb128 0x49
	.uleb128 0x13
	.uleb128 0x38
	.uleb128 0xb
	.byte	0
	.byte	0
	.uleb128 0x4c
	.uleb128 0x15
	.byte	0x1
	.uleb128 0x49
	.uleb128 0x13
	.uleb128 0x1
	.uleb128 0x13
	.byte	0
	.byte	0
	.uleb128 0x4d
	.uleb128 0x15
	.byte	0
	.byte	0
	.byte	0
	.uleb128 0x4e
	.uleb128 0x2e
	.byte	0x1
	.uleb128 0x3f
	.uleb128 0x19
	.uleb128 0x3
	.uleb128 0x8
	.uleb128 0x3a
	.uleb128 0xb
	.uleb128 0x3b
	.uleb128 0x5
	.uleb128 0x39
	.uleb128 0xb
	.uleb128 0x49
	.uleb128 0x13
	.uleb128 0x3c
	.uleb128 0x19
	.uleb128 0x1
	.uleb128 0x13
	.byte	0
	.byte	0
	.uleb128 0x4f
	.uleb128 0x2e
	.byte	0x1
	.uleb128 0x3f
	.uleb128 0x19
	.uleb128 0x3
	.uleb128 0xe
	.uleb128 0x3a
	.uleb128 0xb
	.uleb128 0x3b
	.uleb128 0x5
	.uleb128 0x39
	.uleb128 0xb
	.uleb128 0x3c
	.uleb128 0x19
	.uleb128 0x1
	.uleb128 0x13
	.byte	0
	.byte	0
	.uleb128 0x50
	.uleb128 0x2e
	.byte	0x1
	.uleb128 0x3f
	.uleb128 0x19
	.uleb128 0x3
	.uleb128 0xe
	.uleb128 0x3a
	.uleb128 0xb
	.uleb128 0x3b
	.uleb128 0x5
	.uleb128 0x39
	.uleb128 0xb
	.uleb128 0x87
	.uleb128 0x19
	.uleb128 0x3c
	.uleb128 0x19
	.uleb128 0x1
	.uleb128 0x13
	.byte	0
	.byte	0
	.uleb128 0x51
	.uleb128 0x16
	.byte	0
	.uleb128 0x3
	.uleb128 0xe
	.uleb128 0x3a
	.uleb128 0xb
	.uleb128 0x3b
	.uleb128 0xb
	.uleb128 0x39
	.uleb128 0xb
	.byte	0
	.byte	0
	.uleb128 0x52
	.uleb128 0x13
	.byte	0
	.uleb128 0x3
	.uleb128 0xe
	.uleb128 0x3c
	.uleb128 0x19
	.byte	0
	.byte	0
	.uleb128 0x53
	.uleb128 0x34
	.byte	0
	.uleb128 0x47
	.uleb128 0x13
	.uleb128 0x2
	.uleb128 0x18
	.byte	0
	.byte	0
	.uleb128 0x54
	.uleb128 0x34
	.byte	0
	.uleb128 0x3
	.uleb128 0xe
	.uleb128 0x49
	.uleb128 0x13
	.uleb128 0x3f
	.uleb128 0x19
	.uleb128 0x34
	.uleb128 0x19
	.uleb128 0x3c
	.uleb128 0x19
	.byte	0
	.byte	0
	.uleb128 0x55
	.uleb128 0x2e
	.byte	0
	.uleb128 0x3
	.uleb128 0xe
	.uleb128 0x34
	.uleb128 0x19
	.uleb128 0x11
	.uleb128 0x1
	.uleb128 0x12
	.uleb128 0x7
	.uleb128 0x40
	.uleb128 0x18
	.uleb128 0x2116
	.uleb128 0x19
	.byte	0
	.byte	0
	.uleb128 0x56
	.uleb128 0x2e
	.byte	0x1
	.uleb128 0x3
	.uleb128 0xe
	.uleb128 0x34
	.uleb128 0x19
	.uleb128 0x11
	.uleb128 0x1
	.uleb128 0x12
	.uleb128 0x7
	.uleb128 0x40
	.uleb128 0x18
	.uleb128 0x2116
	.uleb128 0x19
	.uleb128 0x1
	.uleb128 0x13
	.byte	0
	.byte	0
	.uleb128 0x57
	.uleb128 0x5
	.byte	0
	.uleb128 0x3
	.uleb128 0xe
	.uleb128 0x3a
	.uleb128 0xb
	.uleb128 0x3b
	.uleb128 0xb
	.uleb128 0x39
	.uleb128 0xb
	.uleb128 0x49
	.uleb128 0x13
	.uleb128 0x2
	.uleb128 0x18
	.byte	0
	.byte	0
	.uleb128 0x58
	.uleb128 0x2e
	.byte	0x1
	.uleb128 0x3f
	.uleb128 0x19
	.uleb128 0x3
	.uleb128 0xe
	.uleb128 0x3a
	.uleb128 0xb
	.uleb128 0x3b
	.uleb128 0xb
	.uleb128 0x39
	.uleb128 0xb
	.uleb128 0x49
	.uleb128 0x13
	.uleb128 0x11
	.uleb128 0x1
	.uleb128 0x12
	.uleb128 0x7
	.uleb128 0x40
	.uleb128 0x18
	.uleb128 0x2116
	.uleb128 0x19
	.uleb128 0x1
	.uleb128 0x13
	.byte	0
	.byte	0
	.uleb128 0x59
	.uleb128 0x34
	.byte	0
	.uleb128 0x3
	.uleb128 0xe
	.uleb128 0x3a
	.uleb128 0xb
	.uleb128 0x3b
	.uleb128 0xb
	.uleb128 0x39
	.uleb128 0xb
	.uleb128 0x49
	.uleb128 0x13
	.uleb128 0x2
	.uleb128 0x18
	.byte	0
	.byte	0
	.uleb128 0x5a
	.uleb128 0x2e
	.byte	0x1
	.uleb128 0x3f
	.uleb128 0x19
	.uleb128 0x3
	.uleb128 0xe
	.uleb128 0x3a
	.uleb128 0xb
	.uleb128 0x3b
	.uleb128 0xb
	.uleb128 0x39
	.uleb128 0xb
	.uleb128 0x6e
	.uleb128 0xe
	.uleb128 0x49
	.uleb128 0x13
	.uleb128 0x11
	.uleb128 0x1
	.uleb128 0x12
	.uleb128 0x7
	.uleb128 0x40
	.uleb128 0x18
	.uleb128 0x2116
	.uleb128 0x19
	.uleb128 0x1
	.uleb128 0x13
	.byte	0
	.byte	0
	.uleb128 0x5b
	.uleb128 0xb
	.byte	0x1
	.uleb128 0x11
	.uleb128 0x1
	.uleb128 0x12
	.uleb128 0x7
	.byte	0
	.byte	0
	.uleb128 0x5c
	.uleb128 0x34
	.byte	0
	.uleb128 0x3
	.uleb128 0x8
	.uleb128 0x3a
	.uleb128 0xb
	.uleb128 0x3b
	.uleb128 0xb
	.uleb128 0x39
	.uleb128 0xb
	.uleb128 0x49
	.uleb128 0x13
	.uleb128 0x2
	.uleb128 0x18
	.byte	0
	.byte	0
	.uleb128 0x5d
	.uleb128 0x2e
	.byte	0
	.uleb128 0x3f
	.uleb128 0x19
	.uleb128 0x3
	.uleb128 0xe
	.uleb128 0x3a
	.uleb128 0xb
	.uleb128 0x3b
	.uleb128 0xb
	.uleb128 0x39
	.uleb128 0xb
	.uleb128 0x6e
	.uleb128 0xe
	.uleb128 0x11
	.uleb128 0x1
	.uleb128 0x12
	.uleb128 0x7
	.uleb128 0x40
	.uleb128 0x18
	.uleb128 0x2117
	.uleb128 0x19
	.byte	0
	.byte	0
	.uleb128 0x5e
	.uleb128 0x2e
	.byte	0x1
	.uleb128 0x3f
	.uleb128 0x19
	.uleb128 0x3
	.uleb128 0xe
	.uleb128 0x3a
	.uleb128 0xb
	.uleb128 0x3b
	.uleb128 0xb
	.uleb128 0x39
	.uleb128 0xb
	.uleb128 0x6e
	.uleb128 0xe
	.uleb128 0x49
	.uleb128 0x13
	.uleb128 0x11
	.uleb128 0x1
	.uleb128 0x12
	.uleb128 0x7
	.uleb128 0x40
	.uleb128 0x18
	.uleb128 0x2116
	.uleb128 0x19
	.byte	0
	.byte	0
	.byte	0
	.section	.debug_aranges,"",@progbits
	.long	0x2c
	.value	0x2
	.long	.Ldebug_info0
	.byte	0x8
	.byte	0
	.value	0
	.value	0
	.quad	.Ltext0
	.quad	.Letext0-.Ltext0
	.quad	0
	.quad	0
	.section	.debug_line,"",@progbits
.Ldebug_line0:
	.section	.debug_str,"MS",@progbits,1
.LASF314:
	.string	"getenv"
.LASF158:
	.string	"__isoc99_vwscanf"
.LASF260:
	.string	"uint_fast16_t"
.LASF187:
	.string	"long int"
.LASF33:
	.string	"__debug"
.LASF286:
	.string	"int_p_cs_precedes"
.LASF254:
	.string	"uint_least64_t"
.LASF387:
	.string	"nano_exceute_operation"
.LASF332:
	.string	"strtoull"
.LASF232:
	.string	"__uint_least64_t"
.LASF189:
	.string	"wcsxfrm"
.LASF215:
	.string	"char32_t"
.LASF15:
	.string	"~exception_ptr"
.LASF117:
	.string	"_shortbuf"
.LASF320:
	.string	"rand"
.LASF406:
	.string	"_IO_lock_t"
.LASF364:
	.string	"setvbuf"
.LASF83:
	.string	"gp_offset"
.LASF96:
	.string	"__FILE"
.LASF360:
	.string	"remove"
.LASF326:
	.string	"system"
.LASF48:
	.string	"assign"
.LASF173:
	.string	"tm_yday"
.LASF32:
	.string	"_ZNSt21piecewise_construct_tC4Ev"
.LASF54:
	.string	"_ZNSt11char_traitsIcE11to_int_typeERKc"
.LASF296:
	.string	"tv_sec"
.LASF347:
	.string	"fflush"
.LASF197:
	.string	"__isoc99_wscanf"
.LASF391:
	.string	"_Z18osm_operation_timej"
.LASF338:
	.string	"__fpos_t"
.LASF18:
	.string	"_ZNSt15__exception_ptr13exception_ptr4swapERS0_"
.LASF371:
	.string	"towctrans"
.LASF104:
	.string	"_IO_write_end"
.LASF87:
	.string	"unsigned int"
.LASF75:
	.string	"__gnu_cxx"
.LASF122:
	.string	"_freeres_list"
.LASF74:
	.string	"__exception_ptr"
.LASF98:
	.string	"_flags"
.LASF265:
	.string	"intmax_t"
.LASF262:
	.string	"uint_fast64_t"
.LASF256:
	.string	"int_fast16_t"
.LASF221:
	.string	"__int32_t"
.LASF132:
	.string	"wchar_t"
.LASF67:
	.string	"_S_refcount"
.LASF312:
	.string	"atol"
.LASF234:
	.string	"__uintmax_t"
.LASF157:
	.string	"vwscanf"
.LASF272:
	.string	"currency_symbol"
.LASF25:
	.string	"__swappable_details"
.LASF110:
	.string	"_markers"
.LASF154:
	.string	"vswscanf"
.LASF37:
	.string	"_ZNSt11char_traitsIcE2ltERKcS2_"
.LASF403:
	.string	"_ZN9__gnu_cxx3divExx"
.LASF148:
	.string	"__isoc99_swscanf"
.LASF229:
	.string	"__int_least32_t"
.LASF273:
	.string	"mon_decimal_point"
.LASF405:
	.string	"decltype(nullptr)"
.LASF23:
	.string	"nullptr_t"
.LASF410:
	.string	"func"
.LASF76:
	.string	"__ops"
.LASF123:
	.string	"_freeres_buf"
.LASF367:
	.string	"ungetc"
.LASF163:
	.string	"wcscpy"
.LASF58:
	.string	"_ZNSt11char_traitsIcE7not_eofERKi"
.LASF160:
	.string	"wcscat"
.LASF268:
	.string	"decimal_point"
.LASF283:
	.string	"n_sep_by_space"
.LASF337:
	.string	"__state"
.LASF171:
	.string	"tm_year"
.LASF46:
	.string	"copy"
.LASF156:
	.string	"vwprintf"
.LASF258:
	.string	"int_fast64_t"
.LASF216:
	.string	"__gnu_debug"
.LASF137:
	.string	"fwscanf"
.LASF331:
	.string	"strtoll"
.LASF252:
	.string	"uint_least16_t"
.LASF245:
	.string	"uint32_t"
.LASF239:
	.string	"int8_t"
.LASF379:
	.string	"no_args_func_call"
.LASF141:
	.string	"mbrtowc"
.LASF318:
	.string	"mbtowc"
.LASF407:
	.string	"__dso_handle"
.LASF342:
	.string	"fpos_t"
.LASF92:
	.string	"__count"
.LASF79:
	.string	"float"
.LASF170:
	.string	"tm_mon"
.LASF115:
	.string	"_cur_column"
.LASF349:
	.string	"fgetpos"
.LASF106:
	.string	"_IO_buf_end"
.LASF30:
	.string	"__is_integer<float>"
.LASF155:
	.string	"__isoc99_vswscanf"
.LASF26:
	.string	"__swappable_with_details"
.LASF240:
	.string	"int16_t"
.LASF70:
	.string	"basic_ostream<char, std::char_traits<char> >"
.LASF248:
	.string	"int_least16_t"
.LASF266:
	.string	"uintmax_t"
.LASF139:
	.string	"getwc"
.LASF207:
	.string	"long long unsigned int"
.LASF22:
	.string	"_ZSt17rethrow_exceptionNSt15__exception_ptr13exception_ptrE"
.LASF11:
	.string	"_ZNSt15__exception_ptr13exception_ptrC4EOS0_"
.LASF61:
	.string	"string_literals"
.LASF188:
	.string	"wcstoul"
.LASF222:
	.string	"__uint32_t"
.LASF291:
	.string	"int_n_sign_posn"
.LASF399:
	.string	"_ZNSt8ios_base4InitC4ERKS0_"
.LASF328:
	.string	"wctomb"
.LASF294:
	.string	"localeconv"
.LASF393:
	.string	"osm.cpp"
.LASF108:
	.string	"_IO_backup_base"
.LASF55:
	.string	"eq_int_type"
.LASF119:
	.string	"_offset"
.LASF53:
	.string	"to_int_type"
.LASF159:
	.string	"wcrtomb"
.LASF402:
	.string	"_ZSt4cout"
.LASF91:
	.string	"_M_exception_object"
.LASF329:
	.string	"lldiv"
.LASF330:
	.string	"atoll"
.LASF112:
	.string	"_fileno"
.LASF150:
	.string	"vfwprintf"
.LASF295:
	.string	"timeval"
.LASF388:
	.string	"osm_function_time"
.LASF385:
	.string	"current_time"
.LASF351:
	.string	"fopen"
.LASF284:
	.string	"p_sign_posn"
.LASF374:
	.string	"__initialize_p"
.LASF378:
	.string	"addition"
.LASF24:
	.string	"size_t"
.LASF44:
	.string	"move"
.LASF247:
	.string	"int_least8_t"
.LASF116:
	.string	"_vtable_offset"
.LASF242:
	.string	"int64_t"
.LASF250:
	.string	"int_least64_t"
.LASF65:
	.string	"_ZNSt8ios_base4InitD4Ev"
.LASF144:
	.string	"putwc"
.LASF94:
	.string	"__mbstate_t"
.LASF251:
	.string	"uint_least8_t"
.LASF101:
	.string	"_IO_read_base"
.LASF230:
	.string	"__uint_least32_t"
.LASF313:
	.string	"bsearch"
.LASF109:
	.string	"_IO_save_end"
.LASF297:
	.string	"tv_usec"
.LASF278:
	.string	"int_frac_digits"
.LASF78:
	.string	"__float128"
.LASF381:
	.string	"osm_syscall_time"
.LASF343:
	.string	"clearerr"
.LASF201:
	.string	"wcsstr"
.LASF135:
	.string	"fwide"
.LASF288:
	.string	"int_n_cs_precedes"
.LASF394:
	.string	"/cs/usr/alonfrishberg/Desktop/SemesterB/HUJI-Operating-Systems/os_ex1"
.LASF42:
	.string	"find"
.LASF111:
	.string	"_chain"
.LASF277:
	.string	"negative_sign"
.LASF168:
	.string	"tm_hour"
.LASF29:
	.string	"__value"
.LASF220:
	.string	"__uint16_t"
.LASF31:
	.string	"piecewise_construct_t"
.LASF270:
	.string	"grouping"
.LASF196:
	.string	"wscanf"
.LASF28:
	.string	"__is_integer<double>"
.LASF6:
	.string	"_ZNSt15__exception_ptr13exception_ptrC4EPv"
.LASF354:
	.string	"fseek"
.LASF93:
	.string	"char"
.LASF125:
	.string	"_mode"
.LASF300:
	.string	"5div_t"
.LASF147:
	.string	"swscanf"
.LASF346:
	.string	"ferror"
.LASF339:
	.string	"_IO_marker"
.LASF52:
	.string	"int_type"
.LASF102:
	.string	"_IO_write_base"
.LASF99:
	.string	"_IO_read_ptr"
.LASF373:
	.string	"wctype"
.LASF205:
	.string	"long long int"
.LASF224:
	.string	"__uint64_t"
.LASF319:
	.string	"quick_exit"
.LASF89:
	.string	"__wch"
.LASF243:
	.string	"uint8_t"
.LASF16:
	.string	"_ZNSt15__exception_ptr13exception_ptrD4Ev"
.LASF301:
	.string	"quot"
.LASF143:
	.string	"mbsrtowcs"
.LASF361:
	.string	"rename"
.LASF336:
	.string	"__pos"
.LASF369:
	.string	"wctrans_t"
.LASF408:
	.string	"_GLOBAL__sub_I__Z18osm_operation_timej"
.LASF317:
	.string	"mbstowcs"
.LASF17:
	.string	"swap"
.LASF4:
	.string	"exception_ptr"
.LASF184:
	.string	"wcstof"
.LASF182:
	.string	"wcsspn"
.LASF181:
	.string	"wcsrtombs"
.LASF20:
	.string	"_ZNKSt15__exception_ptr13exception_ptr20__cxa_exception_typeEv"
.LASF375:
	.string	"__priority"
.LASF363:
	.string	"setbuf"
.LASF359:
	.string	"perror"
.LASF73:
	.string	"cout"
.LASF107:
	.string	"_IO_save_base"
.LASF275:
	.string	"mon_grouping"
.LASF396:
	.string	"_ZNSt11char_traitsIcE6assignERcRKc"
.LASF64:
	.string	"_ZNSt8ios_base4InitC4Ev"
.LASF208:
	.string	"bool"
.LASF60:
	.string	"__cxx11"
.LASF8:
	.string	"_ZNSt15__exception_ptr13exception_ptrC4Ev"
.LASF219:
	.string	"__int16_t"
.LASF280:
	.string	"p_cs_precedes"
.LASF35:
	.string	"char_type"
.LASF255:
	.string	"int_fast8_t"
.LASF49:
	.string	"_ZNSt11char_traitsIcE6assignEPcmc"
.LASF315:
	.string	"ldiv"
.LASF335:
	.string	"_G_fpos_t"
.LASF131:
	.string	"fgetws"
.LASF72:
	.string	"piecewise_construct"
.LASF12:
	.string	"operator="
.LASF5:
	.string	"_M_get"
.LASF227:
	.string	"__int_least16_t"
.LASF322:
	.string	"srand"
.LASF81:
	.string	"long double"
.LASF355:
	.string	"fsetpos"
.LASF191:
	.string	"wmemcmp"
.LASF261:
	.string	"uint_fast32_t"
.LASF77:
	.string	"__unknown__"
.LASF356:
	.string	"ftell"
.LASF124:
	.string	"__pad5"
.LASF82:
	.string	"long unsigned int"
.LASF149:
	.string	"ungetwc"
.LASF348:
	.string	"fgetc"
.LASF368:
	.string	"wctype_t"
.LASF353:
	.string	"freopen"
.LASF362:
	.string	"rewind"
.LASF169:
	.string	"tm_mday"
.LASF217:
	.string	"__int8_t"
.LASF38:
	.string	"compare"
.LASF350:
	.string	"fgets"
.LASF198:
	.string	"wcschr"
.LASF223:
	.string	"__int64_t"
.LASF366:
	.string	"tmpnam"
.LASF233:
	.string	"__intmax_t"
.LASF133:
	.string	"fputwc"
.LASF263:
	.string	"intptr_t"
.LASF244:
	.string	"uint16_t"
.LASF389:
	.string	"_Z17osm_function_timej"
.LASF376:
	.string	"main"
.LASF68:
	.string	"_S_synced_with_stdio"
.LASF134:
	.string	"fputws"
.LASF45:
	.string	"_ZNSt11char_traitsIcE4moveEPcPKcm"
.LASF151:
	.string	"vfwscanf"
.LASF69:
	.string	"ios_base"
.LASF231:
	.string	"__int_least64_t"
.LASF129:
	.string	"btowc"
.LASF209:
	.string	"unsigned char"
.LASF340:
	.string	"_IO_codecvt"
.LASF226:
	.string	"__uint_least8_t"
.LASF257:
	.string	"int_fast32_t"
.LASF21:
	.string	"rethrow_exception"
.LASF100:
	.string	"_IO_read_end"
.LASF370:
	.string	"iswctype"
.LASF142:
	.string	"mbsinit"
.LASF202:
	.string	"wmemchr"
.LASF212:
	.string	"short int"
.LASF397:
	.string	"_ZNSt11char_traitsIcE3eofEv"
.LASF192:
	.string	"wmemcpy"
.LASF59:
	.string	"_CharT"
.LASF63:
	.string	"~Init"
.LASF271:
	.string	"int_curr_symbol"
.LASF206:
	.string	"wcstoull"
.LASF19:
	.string	"__cxa_exception_type"
.LASF279:
	.string	"frac_digits"
.LASF140:
	.string	"mbrlen"
.LASF39:
	.string	"length"
.LASF352:
	.string	"fread"
.LASF386:
	.string	"end_time"
.LASF395:
	.string	"type_info"
.LASF285:
	.string	"n_sign_posn"
.LASF14:
	.string	"_ZNSt15__exception_ptr13exception_ptraSEOS0_"
.LASF299:
	.string	"11__mbstate_t"
.LASF308:
	.string	"atexit"
.LASF34:
	.string	"char_traits<char>"
.LASF145:
	.string	"putwchar"
.LASF200:
	.string	"wcsrchr"
.LASF404:
	.string	"typedef __va_list_tag __va_list_tag"
.LASF50:
	.string	"to_char_type"
.LASF293:
	.string	"getwchar"
.LASF341:
	.string	"_IO_wide_data"
.LASF276:
	.string	"positive_sign"
.LASF90:
	.string	"__wchb"
.LASF246:
	.string	"uint64_t"
.LASF398:
	.string	"literals"
.LASF344:
	.string	"fclose"
.LASF80:
	.string	"double"
.LASF179:
	.string	"wcsncmp"
.LASF409:
	.string	"__static_initialization_and_destruction_0"
.LASF304:
	.string	"ldiv_t"
.LASF84:
	.string	"fp_offset"
.LASF218:
	.string	"__uint8_t"
.LASF165:
	.string	"wcsftime"
.LASF41:
	.string	"_ZNSt11char_traitsIcE6lengthEPKc"
.LASF162:
	.string	"wcscoll"
.LASF287:
	.string	"int_p_sep_by_space"
.LASF0:
	.string	"_M_addref"
.LASF56:
	.string	"_ZNSt11char_traitsIcE11eq_int_typeERKiS2_"
.LASF357:
	.string	"getc"
.LASF253:
	.string	"uint_least32_t"
.LASF66:
	.string	"operator bool"
.LASF309:
	.string	"at_quick_exit"
.LASF383:
	.string	"_Z16osm_syscall_timej"
.LASF51:
	.string	"_ZNSt11char_traitsIcE12to_char_typeERKi"
.LASF193:
	.string	"wmemmove"
.LASF382:
	.string	"_ZNKSt15__exception_ptr13exception_ptrcvbEv"
.LASF225:
	.string	"__int_least8_t"
.LASF121:
	.string	"_wide_data"
.LASF228:
	.string	"__uint_least16_t"
.LASF195:
	.string	"wprintf"
.LASF118:
	.string	"_lock"
.LASF325:
	.string	"strtoul"
.LASF267:
	.string	"lconv"
.LASF411:
	.string	"_Z4funcv"
.LASF114:
	.string	"_old_offset"
.LASF97:
	.string	"_IO_FILE"
.LASF298:
	.string	"_Atomic_word"
.LASF88:
	.string	"wint_t"
.LASF86:
	.string	"reg_save_area"
.LASF241:
	.string	"int32_t"
.LASF57:
	.string	"not_eof"
.LASF249:
	.string	"int_least32_t"
.LASF183:
	.string	"wcstod"
.LASF199:
	.string	"wcspbrk"
.LASF10:
	.string	"_ZNSt15__exception_ptr13exception_ptrC4EDn"
.LASF167:
	.string	"tm_min"
.LASF95:
	.string	"mbstate_t"
.LASF185:
	.string	"wcstok"
.LASF186:
	.string	"wcstol"
.LASF176:
	.string	"tm_zone"
.LASF392:
	.string	"GNU C++14 10.2.1 20210110 -mtune=generic -march=x86-64 -g -fasynchronous-unwind-tables"
.LASF213:
	.string	"__int128"
.LASF194:
	.string	"wmemset"
.LASF292:
	.string	"setlocale"
.LASF3:
	.string	"_ZNSt15__exception_ptr13exception_ptr10_M_releaseEv"
.LASF302:
	.string	"div_t"
.LASF43:
	.string	"_ZNSt11char_traitsIcE4findEPKcmRS1_"
.LASF7:
	.string	"_ZNKSt15__exception_ptr13exception_ptr6_M_getEv"
.LASF365:
	.string	"tmpfile"
.LASF358:
	.string	"getchar"
.LASF103:
	.string	"_IO_write_ptr"
.LASF269:
	.string	"thousands_sep"
.LASF1:
	.string	"_M_release"
.LASF323:
	.string	"strtod"
.LASF333:
	.string	"strtof"
.LASF259:
	.string	"uint_fast8_t"
.LASF345:
	.string	"feof"
.LASF238:
	.string	"__suseconds_t"
.LASF327:
	.string	"wcstombs"
.LASF324:
	.string	"strtol"
.LASF136:
	.string	"fwprintf"
.LASF316:
	.string	"mblen"
.LASF85:
	.string	"overflow_arg_area"
.LASF62:
	.string	"Init"
.LASF237:
	.string	"__time_t"
.LASF307:
	.string	"__compar_fn_t"
.LASF203:
	.string	"wcstold"
.LASF384:
	.string	"iterations"
.LASF190:
	.string	"wctob"
.LASF303:
	.string	"6ldiv_t"
.LASF204:
	.string	"wcstoll"
.LASF120:
	.string	"_codecvt"
.LASF146:
	.string	"swprintf"
.LASF400:
	.string	"_ZNSt8ios_base4InitaSERKS0_"
.LASF9:
	.string	"_ZNSt15__exception_ptr13exception_ptrC4ERKS0_"
.LASF334:
	.string	"strtold"
.LASF138:
	.string	"__isoc99_fwscanf"
.LASF235:
	.string	"__off_t"
.LASF305:
	.string	"7lldiv_t"
.LASF211:
	.string	"signed char"
.LASF274:
	.string	"mon_thousands_sep"
.LASF390:
	.string	"osm_operation_time"
.LASF128:
	.string	"short unsigned int"
.LASF166:
	.string	"tm_sec"
.LASF289:
	.string	"int_n_sep_by_space"
.LASF306:
	.string	"lldiv_t"
.LASF310:
	.string	"atof"
.LASF164:
	.string	"wcscspn"
.LASF311:
	.string	"atoi"
.LASF282:
	.string	"n_cs_precedes"
.LASF174:
	.string	"tm_isdst"
.LASF13:
	.string	"_ZNSt15__exception_ptr13exception_ptraSERKS0_"
.LASF281:
	.string	"p_sep_by_space"
.LASF180:
	.string	"wcsncpy"
.LASF130:
	.string	"fgetwc"
.LASF401:
	.string	"_Traits"
.LASF264:
	.string	"uintptr_t"
.LASF47:
	.string	"_ZNSt11char_traitsIcE4copyEPcPKcm"
.LASF210:
	.string	"__int128 unsigned"
.LASF161:
	.string	"wcscmp"
.LASF178:
	.string	"wcsncat"
.LASF175:
	.string	"tm_gmtoff"
.LASF71:
	.string	"ostream"
.LASF380:
	.string	"sys_call"
.LASF214:
	.string	"char16_t"
.LASF2:
	.string	"_ZNSt15__exception_ptr13exception_ptr9_M_addrefEv"
.LASF127:
	.string	"FILE"
.LASF372:
	.string	"wctrans"
.LASF153:
	.string	"vswprintf"
.LASF172:
	.string	"tm_wday"
.LASF113:
	.string	"_flags2"
.LASF27:
	.string	"__is_integer<long double>"
.LASF40:
	.string	"_ZNSt11char_traitsIcE7compareEPKcS2_m"
.LASF290:
	.string	"int_p_sign_posn"
.LASF36:
	.string	"_ZNSt11char_traitsIcE2eqERKcS2_"
.LASF177:
	.string	"wcslen"
.LASF236:
	.string	"__off64_t"
.LASF377:
	.string	"__ioinit"
.LASF126:
	.string	"_unused2"
.LASF105:
	.string	"_IO_buf_base"
.LASF152:
	.string	"__isoc99_vfwscanf"
.LASF321:
	.string	"qsort"
	.hidden	__dso_handle
	.ident	"GCC: (Debian 10.2.1-6) 10.2.1 20210110"
	.section	.note.GNU-stack,"",@progbits
